Certificate:
    Data:
        Version: 3 (0x2)
        Serial Number: 2 (0x2)
    Signature Algorithm: sha256WithRSAEncryption
        Issuer: O=Freifunk Braunschweig, CN=Freifunk Braunschweig etcd CA Root
        Validity
            Not Before: Jan  1 00:00:00 1970 GMT
            Not After : Dec 31 23:59:59 9999 GMT
        Subject: O=Freifunk Braunschweig, CN=Freifunk Braunschweig concentrator1 (server)
        Subject Public Key Info:
            Public Key Algorithm: rsaEncryption
                Public-Key: (2048 bit)
                Modulus:
                    00:a9:b9:8a:8a:a2:6c:55:df:6e:94:f4:19:b0:ef:
                    a1:37:1d:9a:c4:e9:89:e3:48:fa:07:6f:61:df:94:
                    cf:90:58:0a:ec:28:de:9e:8b:28:4b:d6:cb:43:3f:
                    42:76:bc:c7:15:ec:5a:53:a1:37:2c:26:15:64:0d:
                    5f:c5:7e:bc:41:42:b3:a6:1a:b9:02:60:0c:4b:70:
                    3d:fc:6e:7b:4f:99:b2:4f:01:5d:66:4f:a7:48:0b:
                    63:91:22:8f:ad:6e:09:48:50:5e:09:9b:28:dc:2f:
                    ca:01:8e:46:20:a6:56:00:37:31:84:6a:6e:57:f2:
                    b3:fd:61:22:a2:68:16:78:c7:90:3b:56:0a:d5:95:
                    c1:3d:d0:2d:18:07:66:d7:35:26:f6:38:82:18:22:
                    af:18:93:e8:9b:0c:b3:8d:09:bd:f9:79:42:b2:8f:
                    0d:de:d5:cf:31:bf:ef:d6:06:f6:14:e3:4a:cf:87:
                    64:39:5d:c5:51:95:c3:6a:d6:3e:ae:68:e6:cd:7b:
                    b8:0b:45:56:a7:e9:d6:30:10:8b:ce:86:10:6f:90:
                    88:70:b7:8b:b7:b1:49:58:bb:5c:e9:ff:0b:af:1e:
                    67:0f:60:75:ef:9e:ee:f5:5f:58:62:da:29:71:32:
                    27:a4:50:37:4f:44:9d:d8:0d:ed:2d:77:fa:bc:91:
                    de:15
                Exponent: 65537 (0x10001)
        X509v3 extensions:
            X509v3 Subject Key Identifier: 
                3D:AA:B6:C7:02:B0:57:0A:D7:6A:FB:3B:E8:64:68:1C:10:70:35:23
            X509v3 Authority Key Identifier: 
                keyid:77:20:C8:2E:65:6B:15:7B:6F:5A:D8:EC:CC:92:54:D0:41:D6:98:8A
                DirName:/O=Freifunk Braunschweig/CN=Freifunk Braunschweig etcd CA Root
                serial:01

            X509v3 Basic Constraints: 
                CA:FALSE
            X509v3 Extended Key Usage: 
                TLS Web Server Authentication, TLS Web Client Authentication
            X509v3 Subject Alternative Name: 
                IP Address:172.16.1.1
    Signature Algorithm: sha256WithRSAEncryption
         c8:53:6a:b0:51:87:15:85:21:66:28:ee:f1:8b:95:89:7f:44:
         73:f5:67:e7:d7:17:d9:e1:fb:b6:33:16:61:98:5c:66:8c:67:
         dc:e3:ae:88:76:f2:a1:ec:5d:a3:fb:55:4c:77:8c:cb:25:d3:
         41:f7:a6:60:99:3e:0a:25:c2:0e:54:49:6e:e1:78:bd:c7:43:
         31:2d:4d:d9:73:54:4b:90:93:9c:8a:6c:84:30:f2:3c:b2:80:
         c6:38:ba:45:e7:f9:a5:ac:d3:78:c7:2c:36:57:a9:16:01:bc:
         a7:84:ba:be:7e:c3:af:33:0e:49:4e:b8:54:26:5c:cd:c4:8c:
         52:a4:a6:8b:42:37:cf:0d:d5:03:c1:18:57:fd:82:53:6a:d2:
         dd:cd:00:97:89:31:31:4e:a2:69:03:13:15:81:11:c8:06:0b:
         c3:15:38:b7:dc:4c:77:66:8e:b3:46:12:2f:62:0c:b6:1f:3c:
         5b:be:37:40:a4:94:ae:0d:f7:29:ff:e8:8b:b3:0f:f7:b1:08:
         c5:9d:11:be:d6:fc:b6:66:da:08:71:b0:d9:41:e4:0c:1a:bb:
         36:a0:a5:60:67:e6:8d:5d:1d:a8:39:70:f6:4e:f3:7e:ba:36:
         86:3b:c4:ea:e3:3e:cd:81:1a:bb:b3:89:2a:88:7d:4f:8c:ed:
         ef:04:58:bb
-----BEGIN CERTIFICATE-----
MIID+DCCAuCgAwIBAgIBAjANBgkqhkiG9w0BAQsFADBNMR4wHAYDVQQKDBVGcmVp
ZnVuayBCcmF1bnNjaHdlaWcxKzApBgNVBAMMIkZyZWlmdW5rIEJyYXVuc2Nod2Vp
ZyBldGNkIENBIFJvb3QwIhgPMTk3MDAxMDEwMDAwMDBaGA85OTk5MTIzMTIzNTk1
OVowVzEeMBwGA1UECgwVRnJlaWZ1bmsgQnJhdW5zY2h3ZWlnMTUwMwYDVQQDDCxG
cmVpZnVuayBCcmF1bnNjaHdlaWcgY29uY2VudHJhdG9yMSAoc2VydmVyKTCCASIw
DQYJKoZIhvcNAQEBBQADggEPADCCAQoCggEBAKm5ioqibFXfbpT0GbDvoTcdmsTp
ieNI+gdvYd+Uz5BYCuwo3p6LKEvWy0M/Qna8xxXsWlOhNywmFWQNX8V+vEFCs6Ya
uQJgDEtwPfxue0+Zsk8BXWZPp0gLY5Eij61uCUhQXgmbKNwvygGORiCmVgA3MYRq
blfys/1hIqJoFnjHkDtWCtWVwT3QLRgHZtc1JvY4ghgirxiT6JsMs40Jvfl5QrKP
Dd7VzzG/79YG9hTjSs+HZDldxVGVw2rWPq5o5s17uAtFVqfp1jAQi86GEG+QiHC3
i7exSVi7XOn/C68eZw9gde+e7vVfWGLaKXEyJ6RQN09EndgN7S13+ryR3hUCAwEA
AaOB1DCB0TAdBgNVHQ4EFgQUPaq2xwKwVwrXavs76GRoHBBwNSMwdQYDVR0jBG4w
bIAUdyDILmVrFXtvWtjszJJU0EHWmIqhUaRPME0xHjAcBgNVBAoMFUZyZWlmdW5r
IEJyYXVuc2Nod2VpZzErMCkGA1UEAwwiRnJlaWZ1bmsgQnJhdW5zY2h3ZWlnIGV0
Y2QgQ0EgUm9vdIIBATAJBgNVHRMEAjAAMB0GA1UdJQQWMBQGCCsGAQUFBwMBBggr
BgEFBQcDAjAPBgNVHREECDAGhwSsEAEBMA0GCSqGSIb3DQEBCwUAA4IBAQDIU2qw
UYcVhSFmKO7xi5WJf0Rz9Wfn1xfZ4fu2MxZhmFxmjGfc466IdvKh7F2j+1VMd4zL
JdNB96ZgmT4KJcIOVElu4Xi9x0MxLU3Zc1RLkJOcimyEMPI8soDGOLpF5/mlrNN4
xyw2V6kWAbynhLq+fsOvMw5JTrhUJlzNxIxSpKaLQjfPDdUDwRhX/YJTatLdzQCX
iTExTqJpAxMVgRHIBgvDFTi33Ex3Zo6zRhIvYgy2HzxbvjdApJSuDfcp/+iLsw/3
sQjFnRG+1vy2ZtoIcbDZQeQMGrs2oKVgZ+aNXR2oOXD2TvN+ujaGO8Tq4z7NgRq7
s4kqiH1PjO3vBFi7
-----END CERTIFICATE-----
