Certificate:
    Data:
        Version: 3 (0x2)
        Serial Number: 5 (0x5)
    Signature Algorithm: sha256WithRSAEncryption
        Issuer: O=Freifunk Braunschweig, CN=Freifunk Braunschweig etcd CA Root
        Validity
            Not Before: Jan  1 00:00:00 1970 GMT
            Not After : Dec 31 23:59:59 9999 GMT
        Subject: O=Freifunk Braunschweig, CN=Freifunk Braunschweig concentrator1 (client)
        Subject Public Key Info:
            Public Key Algorithm: rsaEncryption
                Public-Key: (2048 bit)
                Modulus:
                    00:b1:04:eb:0f:84:76:4c:5e:99:44:84:5d:f3:17:
                    14:4d:e4:69:7a:f5:91:24:00:2c:0e:06:5f:2e:c3:
                    96:6f:db:4a:49:2e:05:5d:24:dc:a7:ab:9a:fa:d6:
                    66:c4:b4:17:bc:d3:88:f0:74:f5:8a:cd:16:23:e3:
                    71:d0:33:85:cd:64:47:43:ba:bf:36:72:38:5f:94:
                    2e:53:77:e8:79:bb:4a:b4:fe:5a:9e:f7:33:ad:17:
                    83:93:6a:87:ac:2b:54:35:a8:07:1d:cd:fe:e6:b6:
                    c4:a7:64:7c:3a:56:cf:9f:b6:b5:d4:71:10:9e:72:
                    d3:09:4d:b1:97:8f:5c:91:98:b6:a1:6b:d6:7a:0a:
                    11:70:ac:ed:ea:71:11:a5:4f:44:f5:f6:dd:c9:7f:
                    02:09:4c:e9:13:6e:9a:36:22:18:1a:6f:33:06:13:
                    20:60:3a:6f:65:54:f6:61:19:58:2e:53:62:f2:d5:
                    61:e5:a8:10:e8:d1:8c:c2:90:cc:3a:07:0c:97:1e:
                    bb:fe:dc:ac:d9:b5:70:e3:95:58:88:37:cc:9b:dd:
                    04:55:9c:53:66:7d:2e:38:26:f7:68:c3:df:09:ae:
                    a5:6a:b3:ae:8f:1c:23:95:35:db:e3:4a:d8:0c:a9:
                    aa:36:f8:cb:23:8b:09:b5:e6:93:23:28:1b:3a:48:
                    1f:1f
                Exponent: 65537 (0x10001)
        X509v3 extensions:
            X509v3 Subject Key Identifier: 
                45:E9:01:58:EF:B2:DA:91:12:B1:DC:8B:56:A0:01:6B:9B:ED:95:7E
            X509v3 Authority Key Identifier: 
                keyid:77:20:C8:2E:65:6B:15:7B:6F:5A:D8:EC:CC:92:54:D0:41:D6:98:8A
                DirName:/O=Freifunk Braunschweig/CN=Freifunk Braunschweig etcd CA Root
                serial:01

            X509v3 Basic Constraints: 
                CA:FALSE
            X509v3 Extended Key Usage: 
                TLS Web Client Authentication
    Signature Algorithm: sha256WithRSAEncryption
         8c:89:e1:51:e3:c0:61:ee:31:97:4b:bd:b5:7b:9f:b3:3a:08:
         9a:29:e1:b3:72:74:28:47:d8:99:78:fa:ae:ef:93:47:45:da:
         16:2f:12:f6:a8:69:91:b3:14:9a:ac:85:02:0c:56:28:07:dc:
         8b:92:fb:70:c6:64:32:4f:29:00:27:bb:a9:d7:f4:53:75:84:
         2d:c9:fe:bd:7a:81:b0:d6:ca:55:7b:a1:f2:e2:10:e3:03:3c:
         eb:ed:01:55:c1:ce:da:80:ed:06:cf:88:e2:e2:72:ed:5b:b7:
         3a:15:e0:d3:bd:df:e7:b5:74:4c:db:d1:96:71:08:64:6e:05:
         6d:19:6e:27:9e:7c:d9:d8:44:f9:17:c2:66:a1:11:60:b3:2f:
         0f:df:76:91:54:c2:e1:d2:ca:44:e8:4b:1b:00:a2:ba:0a:d9:
         f0:f5:81:59:c1:d7:0d:1e:b5:90:8e:12:99:19:07:aa:22:66:
         64:12:0b:87:f5:e3:a5:f4:61:c5:00:ea:18:aa:73:2e:fd:c2:
         2c:dd:12:50:ae:d7:29:55:04:05:ff:e9:69:0d:31:9c:ad:1a:
         9d:54:74:11:41:eb:6c:7a:e4:7c:bd:9c:fa:e9:3a:82:49:ea:
         a3:51:12:5b:91:b4:27:63:65:67:23:9a:5c:2b:df:13:bd:d5:
         57:78:9c:b2
-----BEGIN CERTIFICATE-----
MIID3TCCAsWgAwIBAgIBBTANBgkqhkiG9w0BAQsFADBNMR4wHAYDVQQKDBVGcmVp
ZnVuayBCcmF1bnNjaHdlaWcxKzApBgNVBAMMIkZyZWlmdW5rIEJyYXVuc2Nod2Vp
ZyBldGNkIENBIFJvb3QwIhgPMTk3MDAxMDEwMDAwMDBaGA85OTk5MTIzMTIzNTk1
OVowVzEeMBwGA1UECgwVRnJlaWZ1bmsgQnJhdW5zY2h3ZWlnMTUwMwYDVQQDDCxG
cmVpZnVuayBCcmF1bnNjaHdlaWcgY29uY2VudHJhdG9yMSAoY2xpZW50KTCCASIw
DQYJKoZIhvcNAQEBBQADggEPADCCAQoCggEBALEE6w+EdkxemUSEXfMXFE3kaXr1
kSQALA4GXy7Dlm/bSkkuBV0k3KermvrWZsS0F7zTiPB09YrNFiPjcdAzhc1kR0O6
vzZyOF+ULlN36Hm7SrT+Wp73M60Xg5Nqh6wrVDWoBx3N/ua2xKdkfDpWz5+2tdRx
EJ5y0wlNsZePXJGYtqFr1noKEXCs7epxEaVPRPX23cl/AglM6RNumjYiGBpvMwYT
IGA6b2VU9mEZWC5TYvLVYeWoEOjRjMKQzDoHDJceu/7crNm1cOOVWIg3zJvdBFWc
U2Z9Ljgm92jD3wmupWqzro8cI5U12+NK2Aypqjb4yyOLCbXmkyMoGzpIHx8CAwEA
AaOBuTCBtjAdBgNVHQ4EFgQURekBWO+y2pESsdyLVqABa5vtlX4wdQYDVR0jBG4w
bIAUdyDILmVrFXtvWtjszJJU0EHWmIqhUaRPME0xHjAcBgNVBAoMFUZyZWlmdW5r
IEJyYXVuc2Nod2VpZzErMCkGA1UEAwwiRnJlaWZ1bmsgQnJhdW5zY2h3ZWlnIGV0
Y2QgQ0EgUm9vdIIBATAJBgNVHRMEAjAAMBMGA1UdJQQMMAoGCCsGAQUFBwMCMA0G
CSqGSIb3DQEBCwUAA4IBAQCMieFR48Bh7jGXS721e5+zOgiaKeGzcnQoR9iZePqu
75NHRdoWLxL2qGmRsxSarIUCDFYoB9yLkvtwxmQyTykAJ7up1/RTdYQtyf69eoGw
1spVe6Hy4hDjAzzr7QFVwc7agO0Gz4ji4nLtW7c6FeDTvd/ntXRM29GWcQhkbgVt
GW4nnnzZ2ET5F8JmoRFgsy8P33aRVMLh0spE6EsbAKK6Ctnw9YFZwdcNHrWQjhKZ
GQeqImZkEguH9eOl9GHFAOoYqnMu/cIs3RJQrtcpVQQF/+lpDTGcrRqdVHQRQets
euR8vZz66TqCSeqjURJbkbQnY2VnI5pcK98TvdVXeJyy
-----END CERTIFICATE-----
