Certificate:
    Data:
        Version: 3 (0x2)
        Serial Number: 9 (0x9)
        Signature Algorithm: sha256WithRSAEncryption
        Issuer: O=Freifunk M\xC3\x83\xC2\xBCnchen, CN=Freifunk M\xC3\x83\xC2\xBCnchen etcd CA Root
        Validity
            Not Before: Jan  1 00:00:00 1970 GMT
            Not After : Dec 31 23:59:59 9999 GMT
        Subject: O=Freifunk M\xC3\x83\xC2\xBCnchen, CN=Freifunk M\xC3\x83\xC2\xBCnchen parker-gw04 (client)
        Subject Public Key Info:
            Public Key Algorithm: rsaEncryption
                Public-Key: (2048 bit)
                Modulus:
                    00:cb:c5:31:b5:7d:11:fa:4b:e2:fd:6b:52:0f:9d:
                    c4:82:99:58:f5:a9:ba:78:f4:ad:bb:8f:a1:0c:89:
                    44:28:2e:0d:30:28:1f:b1:52:8b:11:08:e7:cb:b8:
                    87:d5:98:c3:32:fa:d6:b8:a6:79:4a:97:06:5e:bd:
                    8e:3d:c8:fe:27:9f:15:b7:da:28:23:8c:53:61:44:
                    7a:8a:86:0e:4f:c4:c9:ef:e3:c1:60:e8:8c:a3:f0:
                    bd:f3:52:11:0b:29:fd:05:82:e4:ad:6c:53:7a:84:
                    26:81:0e:1d:5a:f8:ed:73:10:8b:85:86:c1:80:d9:
                    39:94:bf:ab:df:67:94:99:b3:5a:f3:02:7b:1d:62:
                    67:ed:c4:09:c7:9c:99:d2:7e:af:8c:03:ae:1c:71:
                    19:57:0a:d5:90:14:e1:80:ae:d9:01:d3:70:eb:aa:
                    4d:8d:99:41:03:e7:9f:ad:47:35:db:e8:ea:9d:08:
                    07:d4:35:96:32:1a:87:7b:b3:9d:2a:70:31:f8:a0:
                    44:29:8a:f1:66:97:9a:62:eb:cd:7c:1d:3b:3f:30:
                    60:83:30:5a:f4:47:7d:8b:e9:3c:63:d7:e3:ed:31:
                    8e:ef:e3:3d:96:36:d0:83:9f:79:f1:bd:4e:73:d5:
                    6e:e5:ac:96:b1:cb:36:c6:fa:9a:37:d2:ed:d5:cd:
                    ac:d5
                Exponent: 65537 (0x10001)
        X509v3 extensions:
            X509v3 Subject Key Identifier: 
                47:D5:89:B6:8B:71:E4:40:D3:63:B0:0E:EC:F1:87:21:74:F9:91:DC
            X509v3 Authority Key Identifier: 
                keyid:6C:12:E9:36:70:96:ED:B1:DD:17:53:F0:7D:78:77:3A:99:05:B3:6B
                DirName:/O=Freifunk M\xC3\x83\xC2\xBCnchen/CN=Freifunk M\xC3\x83\xC2\xBCnchen etcd CA Root
                serial:01
            X509v3 Basic Constraints: 
                CA:FALSE
            X509v3 Extended Key Usage: 
                TLS Web Client Authentication
    Signature Algorithm: sha256WithRSAEncryption
    Signature Value:
        99:0d:54:40:0a:f6:21:f1:fc:18:8c:1f:50:40:af:ec:17:66:
        2b:20:b1:37:4e:e5:26:b2:9c:d0:41:5b:74:eb:82:f7:c8:47:
        fc:98:98:9a:90:ab:68:c0:e1:b8:90:97:68:bc:39:ee:23:7e:
        0a:6e:32:75:38:e1:e5:11:17:c2:05:f6:e7:86:b5:cb:f3:46:
        e4:bb:a9:e2:1e:c1:37:cd:7c:ff:4a:4a:25:b5:bb:8f:fe:55:
        d4:11:84:72:70:d4:9f:d6:1b:a1:bd:32:c8:9a:ef:ab:17:64:
        8b:d8:ba:26:39:a7:52:37:13:d0:9d:c6:57:91:c8:be:19:77:
        7b:3b:7d:b4:4d:4e:e4:51:9d:0d:ab:da:5d:cd:dd:d6:c5:2f:
        9b:d0:15:ef:a2:4a:d3:55:5b:08:a7:f8:14:21:90:8f:06:6b:
        d5:2f:4c:2e:fe:5c:3f:52:a2:c3:61:6a:d7:c9:b7:3e:4d:2f:
        bd:33:ca:a3:d0:ad:9f:f9:fe:3f:53:a7:73:3b:97:b0:81:e5:
        ae:7f:a1:cb:5c:60:d9:b0:ff:9a:90:1c:e3:82:b3:3d:20:9e:
        f3:4f:39:0d:22:e6:9b:b2:8d:cb:6e:ee:40:85:38:6d:d9:5a:
        6a:68:df:59:25:a5:0a:2f:94:57:1b:57:7e:67:a1:f3:4d:44:
        51:f4:f9:68
-----BEGIN CERTIFICATE-----
MIIDzTCCArWgAwIBAgIBCTANBgkqhkiG9w0BAQsFADBJMRwwGgYDVQQKDBNGcmVp
ZnVuayBNw4PCvG5jaGVuMSkwJwYDVQQDDCBGcmVpZnVuayBNw4PCvG5jaGVuIGV0
Y2QgQ0EgUm9vdDAgFw03MDAxMDEwMDAwMDBaGA85OTk5MTIzMTIzNTk1OVowUTEc
MBoGA1UECgwTRnJlaWZ1bmsgTcODwrxuY2hlbjExMC8GA1UEAwwoRnJlaWZ1bmsg
TcODwrxuY2hlbiBwYXJrZXItZ3cwNCAoY2xpZW50KTCCASIwDQYJKoZIhvcNAQEB
BQADggEPADCCAQoCggEBAMvFMbV9EfpL4v1rUg+dxIKZWPWpunj0rbuPoQyJRCgu
DTAoH7FSixEI58u4h9WYwzL61rimeUqXBl69jj3I/iefFbfaKCOMU2FEeoqGDk/E
ye/jwWDojKPwvfNSEQsp/QWC5K1sU3qEJoEOHVr47XMQi4WGwYDZOZS/q99nlJmz
WvMCex1iZ+3ECcecmdJ+r4wDrhxxGVcK1ZAU4YCu2QHTcOuqTY2ZQQPnn61HNdvo
6p0IB9Q1ljIah3uznSpwMfigRCmK8WaXmmLrzXwdOz8wYIMwWvRHfYvpPGPX4+0x
ju/jPZY20IOfefG9TnPVbuWslrHLNsb6mjfS7dXNrNUCAwEAAaOBtTCBsjAdBgNV
HQ4EFgQUR9WJtotx5EDTY7AO7PGHIXT5kdwwcQYDVR0jBGowaIAUbBLpNnCW7bHd
F1PwfXh3OpkFs2uhTaRLMEkxHDAaBgNVBAoME0ZyZWlmdW5rIE3Dg8K8bmNoZW4x
KTAnBgNVBAMMIEZyZWlmdW5rIE3Dg8K8bmNoZW4gZXRjZCBDQSBSb290ggEBMAkG
A1UdEwQCMAAwEwYDVR0lBAwwCgYIKwYBBQUHAwIwDQYJKoZIhvcNAQELBQADggEB
AJkNVEAK9iHx/BiMH1BAr+wXZisgsTdO5SaynNBBW3TrgvfIR/yYmJqQq2jA4biQ
l2i8Oe4jfgpuMnU44eURF8IF9ueGtcvzRuS7qeIewTfNfP9KSiW1u4/+VdQRhHJw
1J/WG6G9Msia76sXZIvYuiY5p1I3E9CdxleRyL4Zd3s7fbRNTuRRnQ2r2l3N3dbF
L5vQFe+iStNVWwin+BQhkI8Ga9UvTC7+XD9SosNhatfJtz5NL70zyqPQrZ/5/j9T
p3M7l7CB5a5/octcYNmw/5qQHOOCsz0gnvNPOQ0i5puyjctu7kCFOG3ZWmpo31kl
pQovlFcbV35nofNNRFH0+Wg=
-----END CERTIFICATE-----
