Certificate:
    Data:
        Version: 3 (0x2)
        Serial Number: 5 (0x5)
        Signature Algorithm: sha256WithRSAEncryption
        Issuer: O=Freifunk M\xC3\x83\xC2\xBCnchen, CN=Freifunk M\xC3\x83\xC2\xBCnchen etcd CA Root
        Validity
            Not Before: Jan  1 00:00:00 1970 GMT
            Not After : Dec 31 23:59:59 9999 GMT
        Subject: O=Freifunk M\xC3\x83\xC2\xBCnchen, CN=Freifunk M\xC3\x83\xC2\xBCnchen parker-gw04 (server)
        Subject Public Key Info:
            Public Key Algorithm: rsaEncryption
                Public-Key: (2048 bit)
                Modulus:
                    00:eb:14:57:f7:ef:ce:48:2e:73:e9:2e:c9:bd:e3:
                    ec:ba:f8:a3:f0:77:c1:48:e2:e4:f1:97:54:6a:f4:
                    5f:9f:62:21:09:f3:fb:b2:c1:4c:8e:ae:9e:59:f8:
                    95:84:cd:09:ca:73:f2:95:27:58:ab:88:2b:31:17:
                    02:ce:83:ee:d9:1c:74:e4:f8:10:f9:bc:f4:ea:d3:
                    15:07:9b:ea:56:b5:86:c1:e3:b2:12:e2:02:c5:a4:
                    6a:86:37:61:6a:d5:4e:0b:c2:2e:f5:ea:65:17:ca:
                    08:e5:39:64:aa:9e:3a:4f:90:58:4a:a7:5a:70:3f:
                    4e:15:a0:9c:03:d8:31:eb:a3:75:c1:b6:ad:dd:47:
                    ec:ea:77:d8:af:19:9d:b1:95:e2:f5:b9:9b:dc:f1:
                    00:2b:81:fa:9f:33:82:9c:3b:1b:29:f2:39:1c:d3:
                    97:c8:0a:79:25:ae:9d:6c:a7:5a:1d:61:4b:5e:f0:
                    71:7e:75:07:3b:23:9f:0b:45:51:6c:4a:a0:63:46:
                    4a:aa:05:1e:ac:ef:d8:cb:5c:68:60:78:cf:e7:87:
                    b8:1e:2a:6a:ae:ea:e4:c4:47:a2:3c:9f:79:25:93:
                    6a:d6:e5:56:35:08:e4:b9:ce:6f:fc:00:ca:bd:49:
                    16:24:fb:f0:ab:8c:29:54:e9:97:da:78:39:fa:f0:
                    65:49
                Exponent: 65537 (0x10001)
        X509v3 extensions:
            X509v3 Subject Key Identifier: 
                D6:07:31:55:3A:D4:34:09:A0:45:31:15:33:45:46:FF:9C:81:16:9D
            X509v3 Authority Key Identifier: 
                keyid:6C:12:E9:36:70:96:ED:B1:DD:17:53:F0:7D:78:77:3A:99:05:B3:6B
                DirName:/O=Freifunk M\xC3\x83\xC2\xBCnchen/CN=Freifunk M\xC3\x83\xC2\xBCnchen etcd CA Root
                serial:01
            X509v3 Basic Constraints: 
                CA:FALSE
            X509v3 Extended Key Usage: 
                TLS Web Server Authentication, TLS Web Client Authentication
            X509v3 Subject Alternative Name: 
                IP Address:10.0.0.4
    Signature Algorithm: sha256WithRSAEncryption
    Signature Value:
        33:d4:d9:e6:99:d2:8b:90:0b:35:0c:aa:c5:50:af:f4:20:41:
        36:90:00:af:83:77:65:af:2b:e2:67:2f:cc:1e:26:ae:9c:a3:
        88:a6:59:ec:98:ee:27:35:50:eb:59:58:b3:3a:9c:af:7f:b8:
        8a:83:17:ea:ae:bf:d3:28:d9:7d:04:63:99:e3:54:da:26:5f:
        d3:a6:a9:8e:92:8d:db:17:15:b3:14:1c:3f:38:93:bd:5d:69:
        9b:7f:e8:b1:b2:e7:53:e4:48:3b:f4:94:eb:d9:d4:f1:bb:b1:
        18:d4:9a:cc:93:d0:48:b9:f0:85:ad:6a:ed:03:e2:28:22:eb:
        25:27:88:4b:52:18:2a:8e:52:5e:bb:d8:80:57:d7:a5:58:7e:
        af:d4:79:8c:7c:9b:eb:f4:bb:b0:c1:10:79:66:3e:5b:6b:58:
        7b:e4:e6:8b:7b:a5:47:ca:c6:fd:05:07:b1:93:45:58:25:60:
        fb:29:e4:ae:59:6b:8d:0e:37:ba:e9:98:3b:89:5f:c5:fb:6b:
        82:9d:e9:68:f8:7a:2d:ba:46:0b:3d:3e:e6:26:f6:df:e2:c1:
        74:30:94:c6:6b:28:19:79:8e:b5:df:f9:47:dc:76:a9:b4:b6:
        d3:5b:0d:c8:94:79:60:0d:2f:98:55:7f:b6:7f:3e:25:98:9f:
        4a:ab:27:e7
-----BEGIN CERTIFICATE-----
MIID6DCCAtCgAwIBAgIBBTANBgkqhkiG9w0BAQsFADBJMRwwGgYDVQQKDBNGcmVp
ZnVuayBNw4PCvG5jaGVuMSkwJwYDVQQDDCBGcmVpZnVuayBNw4PCvG5jaGVuIGV0
Y2QgQ0EgUm9vdDAgFw03MDAxMDEwMDAwMDBaGA85OTk5MTIzMTIzNTk1OVowUTEc
MBoGA1UECgwTRnJlaWZ1bmsgTcODwrxuY2hlbjExMC8GA1UEAwwoRnJlaWZ1bmsg
TcODwrxuY2hlbiBwYXJrZXItZ3cwNCAoc2VydmVyKTCCASIwDQYJKoZIhvcNAQEB
BQADggEPADCCAQoCggEBAOsUV/fvzkguc+kuyb3j7Lr4o/B3wUji5PGXVGr0X59i
IQnz+7LBTI6unln4lYTNCcpz8pUnWKuIKzEXAs6D7tkcdOT4EPm89OrTFQeb6la1
hsHjshLiAsWkaoY3YWrVTgvCLvXqZRfKCOU5ZKqeOk+QWEqnWnA/ThWgnAPYMeuj
dcG2rd1H7Op32K8ZnbGV4vW5m9zxACuB+p8zgpw7GynyORzTl8gKeSWunWynWh1h
S17wcX51BzsjnwtFUWxKoGNGSqoFHqzv2MtcaGB4z+eHuB4qaq7q5MRHojyfeSWT
atblVjUI5LnOb/wAyr1JFiT78KuMKVTpl9p4OfrwZUkCAwEAAaOB0DCBzTAdBgNV
HQ4EFgQU1gcxVTrUNAmgRTEVM0VG/5yBFp0wcQYDVR0jBGowaIAUbBLpNnCW7bHd
F1PwfXh3OpkFs2uhTaRLMEkxHDAaBgNVBAoME0ZyZWlmdW5rIE3Dg8K8bmNoZW4x
KTAnBgNVBAMMIEZyZWlmdW5rIE3Dg8K8bmNoZW4gZXRjZCBDQSBSb290ggEBMAkG
A1UdEwQCMAAwHQYDVR0lBBYwFAYIKwYBBQUHAwEGCCsGAQUFBwMCMA8GA1UdEQQI
MAaHBAoAAAQwDQYJKoZIhvcNAQELBQADggEBADPU2eaZ0ouQCzUMqsVQr/QgQTaQ
AK+Dd2WvK+JnL8weJq6co4imWeyY7ic1UOtZWLM6nK9/uIqDF+quv9Mo2X0EY5nj
VNomX9OmqY6SjdsXFbMUHD84k71daZt/6LGy51PkSDv0lOvZ1PG7sRjUmsyT0Ei5
8IWtau0D4igi6yUniEtSGCqOUl672IBX16VYfq/UeYx8m+v0u7DBEHlmPltrWHvk
5ot7pUfKxv0FB7GTRVglYPsp5K5Za40ON7rpmDuJX8X7a4Kd6Wj4ei26Rgs9PuYm
9t/iwXQwlMZrKBl5jrXf+Ufcdqm0ttNbDciUeWANL5hVf7Z/PiWYn0qrJ+c=
-----END CERTIFICATE-----
