Certificate:
    Data:
        Version: 3 (0x2)
        Serial Number: 4 (0x4)
    Signature Algorithm: sha256WithRSAEncryption
        Issuer: O=Freifunk Braunschweig, CN=Freifunk Braunschweig etcd CA Root
        Validity
            Not Before: Jan  1 00:00:00 1970 GMT
            Not After : Dec 31 23:59:59 9999 GMT
        Subject: O=Freifunk Braunschweig, CN=Freifunk Braunschweig concentrator3 (server)
        Subject Public Key Info:
            Public Key Algorithm: rsaEncryption
                Public-Key: (2048 bit)
                Modulus:
                    00:cf:67:ad:36:45:96:fe:89:e5:fb:8b:3d:7d:e6:
                    10:a9:3e:cf:27:57:a3:5f:87:ed:17:74:1b:71:7b:
                    27:18:54:5c:03:4b:af:64:56:82:2c:0c:39:9b:76:
                    a4:dd:8a:3d:7e:83:b4:a6:10:6a:5c:6b:db:eb:30:
                    31:6e:3e:8d:c8:0e:01:db:ff:ab:ad:00:3e:c3:b8:
                    d2:7d:2a:4c:9f:d6:df:79:76:ee:eb:74:b4:35:45:
                    ac:dd:32:0e:cf:4f:6d:08:99:98:c8:43:92:82:e7:
                    76:81:65:20:e6:9f:67:b8:86:be:70:df:4d:02:20:
                    e5:6c:45:7c:b9:8f:40:03:e2:68:5e:5e:f7:65:05:
                    36:bd:9f:b2:12:f3:f8:21:49:aa:71:5e:57:88:fd:
                    49:8e:61:04:16:d5:71:04:9b:52:99:05:3b:21:f5:
                    ab:25:ad:81:c2:79:94:b6:b9:dd:02:28:d8:e1:fa:
                    05:d2:e0:80:10:fe:32:b0:2c:79:0e:e5:dc:17:e7:
                    97:45:52:47:24:3b:cb:8c:1a:dc:ae:53:c1:3a:1c:
                    ae:6f:8a:5b:61:6c:c7:76:84:a3:5a:25:ad:a9:4d:
                    70:5c:2d:bd:fa:ae:ce:0a:3c:23:ca:2e:bb:11:35:
                    4b:51:f5:11:06:75:f3:ff:52:14:44:f6:0d:55:0d:
                    5f:6b
                Exponent: 65537 (0x10001)
        X509v3 extensions:
            X509v3 Subject Key Identifier: 
                11:1B:8E:19:BA:D3:69:3C:58:CE:63:52:6C:FC:84:10:01:D6:70:06
            X509v3 Authority Key Identifier: 
                keyid:77:20:C8:2E:65:6B:15:7B:6F:5A:D8:EC:CC:92:54:D0:41:D6:98:8A
                DirName:/O=Freifunk Braunschweig/CN=Freifunk Braunschweig etcd CA Root
                serial:01

            X509v3 Basic Constraints: 
                CA:FALSE
            X509v3 Extended Key Usage: 
                TLS Web Server Authentication, TLS Web Client Authentication
            X509v3 Subject Alternative Name: 
                IP Address:172.16.1.3
    Signature Algorithm: sha256WithRSAEncryption
         ac:a4:24:d3:4e:f5:bb:11:02:a7:f9:15:f2:99:2b:a6:21:8e:
         0a:de:76:1d:c6:94:8f:6d:ad:6b:4f:34:8c:b4:f5:43:c8:fb:
         67:e0:b9:4e:46:5f:5e:c1:39:3f:85:01:ef:6a:9e:9f:b3:c3:
         56:c1:de:e7:ab:ac:5b:aa:a6:04:4b:06:5f:6d:11:62:e8:4c:
         cb:5f:2c:4f:39:dd:23:82:93:55:7d:bc:a9:a1:0c:52:1e:18:
         4b:dc:c0:36:06:77:c5:d6:6b:55:50:a6:d7:c4:27:ac:db:b9:
         c7:34:8c:2a:d8:89:72:a2:96:3c:1f:5f:a5:a2:94:0b:a6:6a:
         24:d5:97:17:74:10:e1:eb:fd:ed:af:08:ae:2e:f9:b1:a3:18:
         f3:0d:27:67:78:f6:b8:3d:76:0a:51:9b:f7:21:45:1e:69:44:
         ba:48:52:f4:9c:3b:34:a1:54:93:01:2a:61:ba:09:6d:dd:e3:
         de:8d:de:1b:34:ab:ab:bb:29:6b:e9:15:96:5f:37:6f:42:88:
         dd:f0:74:19:00:ee:ca:b9:4c:f9:a9:90:a1:ed:5b:3c:79:31:
         a1:be:26:8e:88:20:c3:78:f4:79:67:76:50:11:1d:f5:37:bd:
         fd:77:48:e5:21:f1:3d:27:05:7d:55:71:0b:29:60:5f:9a:fb:
         ed:75:39:4b
-----BEGIN CERTIFICATE-----
MIID+DCCAuCgAwIBAgIBBDANBgkqhkiG9w0BAQsFADBNMR4wHAYDVQQKDBVGcmVp
ZnVuayBCcmF1bnNjaHdlaWcxKzApBgNVBAMMIkZyZWlmdW5rIEJyYXVuc2Nod2Vp
ZyBldGNkIENBIFJvb3QwIhgPMTk3MDAxMDEwMDAwMDBaGA85OTk5MTIzMTIzNTk1
OVowVzEeMBwGA1UECgwVRnJlaWZ1bmsgQnJhdW5zY2h3ZWlnMTUwMwYDVQQDDCxG
cmVpZnVuayBCcmF1bnNjaHdlaWcgY29uY2VudHJhdG9yMyAoc2VydmVyKTCCASIw
DQYJKoZIhvcNAQEBBQADggEPADCCAQoCggEBAM9nrTZFlv6J5fuLPX3mEKk+zydX
o1+H7Rd0G3F7JxhUXANLr2RWgiwMOZt2pN2KPX6DtKYQalxr2+swMW4+jcgOAdv/
q60APsO40n0qTJ/W33l27ut0tDVFrN0yDs9PbQiZmMhDkoLndoFlIOafZ7iGvnDf
TQIg5WxFfLmPQAPiaF5e92UFNr2fshLz+CFJqnFeV4j9SY5hBBbVcQSbUpkFOyH1
qyWtgcJ5lLa53QIo2OH6BdLggBD+MrAseQ7l3Bfnl0VSRyQ7y4wa3K5TwTocrm+K
W2Fsx3aEo1olralNcFwtvfquzgo8I8ouuxE1S1H1EQZ18/9SFET2DVUNX2sCAwEA
AaOB1DCB0TAdBgNVHQ4EFgQUERuOGbrTaTxYzmNSbPyEEAHWcAYwdQYDVR0jBG4w
bIAUdyDILmVrFXtvWtjszJJU0EHWmIqhUaRPME0xHjAcBgNVBAoMFUZyZWlmdW5r
IEJyYXVuc2Nod2VpZzErMCkGA1UEAwwiRnJlaWZ1bmsgQnJhdW5zY2h3ZWlnIGV0
Y2QgQ0EgUm9vdIIBATAJBgNVHRMEAjAAMB0GA1UdJQQWMBQGCCsGAQUFBwMBBggr
BgEFBQcDAjAPBgNVHREECDAGhwSsEAEDMA0GCSqGSIb3DQEBCwUAA4IBAQCspCTT
TvW7EQKn+RXymSumIY4K3nYdxpSPba1rTzSMtPVDyPtn4LlORl9ewTk/hQHvap6f
s8NWwd7nq6xbqqYESwZfbRFi6EzLXyxPOd0jgpNVfbypoQxSHhhL3MA2BnfF1mtV
UKbXxCes27nHNIwq2IlyopY8H1+lopQLpmok1ZcXdBDh6/3trwiuLvmxoxjzDSdn
ePa4PXYKUZv3IUUeaUS6SFL0nDs0oVSTASphuglt3ePejd4bNKuruylr6RWWXzdv
Qojd8HQZAO7KuUz5qZCh7Vs8eTGhviaOiCDDePR5Z3ZQER31N739d0jlIfE9JwV9
VXELKWBfmvvtdTlL
-----END CERTIFICATE-----
