Certificate:
    Data:
        Version: 3 (0x2)
        Serial Number: 7 (0x7)
    Signature Algorithm: sha256WithRSAEncryption
        Issuer: O=Freifunk Braunschweig, CN=Freifunk Braunschweig etcd CA Root
        Validity
            Not Before: Jan  1 00:00:00 1970 GMT
            Not After : Dec 31 23:59:59 9999 GMT
        Subject: O=Freifunk Braunschweig, CN=Freifunk Braunschweig concentrator3 (client)
        Subject Public Key Info:
            Public Key Algorithm: rsaEncryption
                Public-Key: (2048 bit)
                Modulus:
                    00:d0:6e:ee:6c:4e:3f:af:67:37:8e:f0:d0:76:4d:
                    8a:09:eb:57:26:8a:a2:9d:19:15:f6:5a:50:1c:f7:
                    c6:8a:9d:66:67:e4:76:55:7d:19:0e:86:3b:ac:3a:
                    55:ad:04:34:29:a4:18:6e:66:bc:50:3b:d6:bf:8e:
                    50:ac:68:22:16:2c:bf:59:8e:44:2b:7a:1f:bb:f6:
                    12:c8:b7:a0:71:04:29:65:38:af:2c:c1:3d:9f:8b:
                    83:5e:43:6f:d6:47:8b:22:40:fb:85:53:c4:7d:19:
                    59:ef:0c:1d:46:16:aa:62:76:f8:0f:a6:ee:89:7d:
                    24:b7:87:39:c0:e0:2a:96:0d:d7:f2:af:01:c1:f9:
                    c9:48:7e:5b:1c:5c:e5:80:d8:4c:30:20:22:02:e1:
                    40:67:71:4e:06:f7:f0:e2:4e:32:16:d5:3c:b2:77:
                    f3:b9:43:ac:88:f2:dc:6f:52:4e:27:92:50:e0:54:
                    ec:e9:17:05:b7:31:e5:2d:4d:b1:a7:ed:e5:82:a0:
                    c0:f4:a5:6f:e6:65:97:98:e8:f8:17:c9:b2:39:2c:
                    7b:04:5b:d4:dc:be:28:39:da:24:44:eb:1b:d2:2d:
                    3d:a5:59:18:41:77:eb:78:87:8c:a1:b8:e2:f2:99:
                    9d:df:e8:6c:f5:94:a2:97:a1:11:6d:59:fa:5d:31:
                    dd:ed
                Exponent: 65537 (0x10001)
        X509v3 extensions:
            X509v3 Subject Key Identifier: 
                AB:38:9E:47:4E:34:B6:8B:F9:DE:16:D3:89:BE:A1:04:20:31:D4:71
            X509v3 Authority Key Identifier: 
                keyid:77:20:C8:2E:65:6B:15:7B:6F:5A:D8:EC:CC:92:54:D0:41:D6:98:8A
                DirName:/O=Freifunk Braunschweig/CN=Freifunk Braunschweig etcd CA Root
                serial:01

            X509v3 Basic Constraints: 
                CA:FALSE
            X509v3 Extended Key Usage: 
                TLS Web Client Authentication
    Signature Algorithm: sha256WithRSAEncryption
         55:0b:d8:56:d1:86:48:b4:46:30:46:9d:1f:dd:29:ae:76:96:
         d5:fb:40:e6:97:55:5c:2a:2b:e0:5a:64:13:01:05:7b:fd:68:
         c5:90:a7:b9:2e:1c:6c:ef:2e:0e:83:36:19:9f:3e:1d:53:ea:
         0e:a2:90:db:1a:94:cf:15:f5:9d:63:e8:7d:d9:80:9d:2a:22:
         dc:76:78:de:f0:84:f3:61:f6:5d:26:ce:a9:00:6c:0f:66:bf:
         a2:a0:2f:6d:78:5c:83:01:71:7b:e8:08:fe:91:4e:2f:91:ea:
         52:f7:83:7b:41:c0:2c:c9:c5:a7:f2:a1:66:09:5d:7f:fd:bc:
         7b:53:99:73:db:34:2f:26:f4:f1:fa:da:e8:92:ee:e0:7d:d8:
         27:96:3e:14:d0:46:6b:a1:76:04:c3:3b:89:1a:62:99:5b:7a:
         39:4c:4b:0e:db:0c:e0:57:7f:d4:02:82:5b:75:08:c4:3f:a2:
         3d:ce:1d:d6:df:46:de:cc:23:73:5e:08:ac:29:f2:15:cc:ff:
         7c:d2:de:37:ae:48:4c:6c:27:e0:5b:65:f2:57:e4:df:6d:ba:
         5e:0b:83:b0:9d:b0:90:4f:7d:ad:22:14:25:3a:29:fe:5e:c5:
         29:21:0c:14:0d:a3:e5:6d:53:6e:9e:7a:02:6a:d4:c1:7e:73:
         dc:22:b1:7d
-----BEGIN CERTIFICATE-----
MIID3TCCAsWgAwIBAgIBBzANBgkqhkiG9w0BAQsFADBNMR4wHAYDVQQKDBVGcmVp
ZnVuayBCcmF1bnNjaHdlaWcxKzApBgNVBAMMIkZyZWlmdW5rIEJyYXVuc2Nod2Vp
ZyBldGNkIENBIFJvb3QwIhgPMTk3MDAxMDEwMDAwMDBaGA85OTk5MTIzMTIzNTk1
OVowVzEeMBwGA1UECgwVRnJlaWZ1bmsgQnJhdW5zY2h3ZWlnMTUwMwYDVQQDDCxG
cmVpZnVuayBCcmF1bnNjaHdlaWcgY29uY2VudHJhdG9yMyAoY2xpZW50KTCCASIw
DQYJKoZIhvcNAQEBBQADggEPADCCAQoCggEBANBu7mxOP69nN47w0HZNignrVyaK
op0ZFfZaUBz3xoqdZmfkdlV9GQ6GO6w6Va0ENCmkGG5mvFA71r+OUKxoIhYsv1mO
RCt6H7v2Esi3oHEEKWU4ryzBPZ+Lg15Db9ZHiyJA+4VTxH0ZWe8MHUYWqmJ2+A+m
7ol9JLeHOcDgKpYN1/KvAcH5yUh+Wxxc5YDYTDAgIgLhQGdxTgb38OJOMhbVPLJ3
87lDrIjy3G9STieSUOBU7OkXBbcx5S1Nsaft5YKgwPSlb+Zll5jo+BfJsjksewRb
1Ny+KDnaJETrG9ItPaVZGEF363iHjKG44vKZnd/obPWUopehEW1Z+l0x3e0CAwEA
AaOBuTCBtjAdBgNVHQ4EFgQUqzieR040tov53hbTib6hBCAx1HEwdQYDVR0jBG4w
bIAUdyDILmVrFXtvWtjszJJU0EHWmIqhUaRPME0xHjAcBgNVBAoMFUZyZWlmdW5r
IEJyYXVuc2Nod2VpZzErMCkGA1UEAwwiRnJlaWZ1bmsgQnJhdW5zY2h3ZWlnIGV0
Y2QgQ0EgUm9vdIIBATAJBgNVHRMEAjAAMBMGA1UdJQQMMAoGCCsGAQUFBwMCMA0G
CSqGSIb3DQEBCwUAA4IBAQBVC9hW0YZItEYwRp0f3SmudpbV+0Dml1VcKivgWmQT
AQV7/WjFkKe5Lhxs7y4OgzYZnz4dU+oOopDbGpTPFfWdY+h92YCdKiLcdnje8ITz
YfZdJs6pAGwPZr+ioC9teFyDAXF76Aj+kU4vkepS94N7QcAsycWn8qFmCV1//bx7
U5lz2zQvJvTx+troku7gfdgnlj4U0EZroXYEwzuJGmKZW3o5TEsO2wzgV3/UAoJb
dQjEP6I9zh3W30bezCNzXgisKfIVzP980t43rkhMbCfgW2XyV+TfbbpeC4OwnbCQ
T32tIhQlOin+XsUpIQwUDaPlbVNunnoCatTBfnPcIrF9
-----END CERTIFICATE-----
