Certificate:
    Data:
        Version: 3 (0x2)
        Serial Number: 8 (0x8)
    Signature Algorithm: sha256WithRSAEncryption
        Issuer: O=Freifunk Braunschweig, CN=Freifunk Braunschweig etcd CA Root
        Validity
            Not Before: Jan  1 00:00:00 1970 GMT
            Not After : Dec 31 23:59:59 9999 GMT
        Subject: O=Freifunk Braunschweig, CN=Freifunk Braunschweig exit1 (client)
        Subject Public Key Info:
            Public Key Algorithm: rsaEncryption
                Public-Key: (2048 bit)
                Modulus:
                    00:cd:15:9b:86:f3:9f:16:0f:e0:9f:27:b9:5a:7a:
                    d6:9b:c5:33:37:89:ad:fa:6b:08:c0:18:5f:23:28:
                    57:11:6f:be:df:fb:c8:97:b4:d6:c6:1d:18:a0:33:
                    b3:e8:86:a7:54:30:53:9c:6b:21:db:8f:03:1f:26:
                    4a:ed:75:90:34:44:9a:75:58:bd:14:e6:b6:27:4b:
                    73:d2:7a:e8:78:e6:24:91:53:dc:64:ab:ff:24:ef:
                    8d:0b:04:7d:6d:28:df:93:12:19:78:7b:6e:5b:3c:
                    85:94:95:29:9c:68:f8:34:bb:27:ae:53:6f:6a:51:
                    ed:70:75:3d:84:5f:b7:09:2b:70:05:61:c4:8d:5f:
                    8f:f5:5e:74:d4:82:5f:2f:1a:29:2c:79:f5:48:c2:
                    7a:8b:be:77:d8:59:b9:02:a8:bf:9a:96:bb:0b:a9:
                    f2:cd:94:ef:e0:55:60:a8:8b:10:f3:bd:db:3b:7c:
                    2a:e4:76:2f:ad:55:91:82:60:ad:9e:29:d9:55:44:
                    69:df:df:da:e7:d0:2f:25:5f:26:39:bd:10:fe:6f:
                    22:8b:fe:e2:90:60:b3:72:69:79:cb:26:3f:e3:53:
                    d3:37:7f:72:82:0a:4b:3e:53:e6:26:89:58:dc:76:
                    cf:a5:b8:b4:2f:18:dd:fc:f1:2c:ae:22:dd:4a:18:
                    ea:2b
                Exponent: 65537 (0x10001)
        X509v3 extensions:
            X509v3 Subject Key Identifier: 
                B1:DB:DE:C9:C9:C0:87:7D:53:C4:15:00:03:19:4F:30:77:96:31:D8
            X509v3 Authority Key Identifier: 
                keyid:77:20:C8:2E:65:6B:15:7B:6F:5A:D8:EC:CC:92:54:D0:41:D6:98:8A
                DirName:/O=Freifunk Braunschweig/CN=Freifunk Braunschweig etcd CA Root
                serial:01

            X509v3 Basic Constraints: 
                CA:FALSE
            X509v3 Extended Key Usage: 
                TLS Web Client Authentication
    Signature Algorithm: sha256WithRSAEncryption
         3a:3b:bd:e2:79:ce:87:a5:9f:49:94:77:9d:c1:10:93:97:2e:
         05:05:48:e7:85:70:e2:b2:b9:42:f5:df:aa:5a:9b:e2:60:df:
         a9:ef:a9:d5:0e:d9:c0:e1:87:96:dc:11:d3:6c:13:74:b8:8b:
         89:4f:67:bc:b3:ef:ab:8a:9b:6a:f7:88:56:e3:a2:fb:5d:a0:
         29:f1:5e:7b:df:68:0f:ee:02:85:d4:f3:45:88:95:66:7f:17:
         30:36:66:14:11:82:5e:26:fb:21:43:37:8d:20:60:34:05:ae:
         f7:66:80:6e:ae:fd:18:ba:77:09:ae:71:c2:31:cc:fb:fb:3c:
         40:c0:dc:53:03:34:61:76:69:cc:e6:6e:7d:b5:75:a2:13:7a:
         32:58:07:b6:f6:2a:44:06:74:48:60:b0:0f:1e:33:dd:54:15:
         b2:e7:ba:95:77:d4:73:11:5b:0e:eb:97:a9:c4:81:8f:81:a9:
         53:db:aa:52:59:02:e5:96:63:11:71:e7:25:bc:ad:78:40:76:
         e1:fd:cf:46:67:91:fa:f6:6a:83:93:45:6b:c6:1e:6d:7f:55:
         54:ff:bc:3b:ab:a4:8d:ad:06:6e:c6:fd:85:c7:41:97:a2:f7:
         44:15:ce:c1:94:69:56:a6:d9:b5:5c:6e:38:b0:43:bd:3c:98:
         2a:c3:2f:6a
-----BEGIN CERTIFICATE-----
MIID1TCCAr2gAwIBAgIBCDANBgkqhkiG9w0BAQsFADBNMR4wHAYDVQQKDBVGcmVp
ZnVuayBCcmF1bnNjaHdlaWcxKzApBgNVBAMMIkZyZWlmdW5rIEJyYXVuc2Nod2Vp
ZyBldGNkIENBIFJvb3QwIhgPMTk3MDAxMDEwMDAwMDBaGA85OTk5MTIzMTIzNTk1
OVowTzEeMBwGA1UECgwVRnJlaWZ1bmsgQnJhdW5zY2h3ZWlnMS0wKwYDVQQDDCRG
cmVpZnVuayBCcmF1bnNjaHdlaWcgZXhpdDEgKGNsaWVudCkwggEiMA0GCSqGSIb3
DQEBAQUAA4IBDwAwggEKAoIBAQDNFZuG858WD+CfJ7laetabxTM3ia36awjAGF8j
KFcRb77f+8iXtNbGHRigM7PohqdUMFOcayHbjwMfJkrtdZA0RJp1WL0U5rYnS3PS
euh45iSRU9xkq/8k740LBH1tKN+TEhl4e25bPIWUlSmcaPg0uyeuU29qUe1wdT2E
X7cJK3AFYcSNX4/1XnTUgl8vGiksefVIwnqLvnfYWbkCqL+alrsLqfLNlO/gVWCo
ixDzvds7fCrkdi+tVZGCYK2eKdlVRGnf39rn0C8lXyY5vRD+byKL/uKQYLNyaXnL
Jj/jU9M3f3KCCks+U+YmiVjcds+luLQvGN388SyuIt1KGOorAgMBAAGjgbkwgbYw
HQYDVR0OBBYEFLHb3snJwId9U8QVAAMZTzB3ljHYMHUGA1UdIwRuMGyAFHcgyC5l
axV7b1rY7MySVNBB1piKoVGkTzBNMR4wHAYDVQQKDBVGcmVpZnVuayBCcmF1bnNj
aHdlaWcxKzApBgNVBAMMIkZyZWlmdW5rIEJyYXVuc2Nod2VpZyBldGNkIENBIFJv
b3SCAQEwCQYDVR0TBAIwADATBgNVHSUEDDAKBggrBgEFBQcDAjANBgkqhkiG9w0B
AQsFAAOCAQEAOju94nnOh6WfSZR3ncEQk5cuBQVI54Vw4rK5QvXfqlqb4mDfqe+p
1Q7ZwOGHltwR02wTdLiLiU9nvLPvq4qbaveIVuOi+12gKfFee99oD+4ChdTzRYiV
Zn8XMDZmFBGCXib7IUM3jSBgNAWu92aAbq79GLp3Ca5xwjHM+/s8QMDcUwM0YXZp
zOZufbV1ohN6MlgHtvYqRAZ0SGCwDx4z3VQVsue6lXfUcxFbDuuXqcSBj4GpU9uq
UlkC5ZZjEXHnJbyteEB24f3PRmeR+vZqg5NFa8YebX9VVP+8O6ukja0Gbsb9hcdB
l6L3RBXOwZRpVqbZtVxuOLBDvTyYKsMvag==
-----END CERTIFICATE-----
