Certificate:
    Data:
        Version: 3 (0x2)
        Serial Number: 2 (0x2)
        Signature Algorithm: sha256WithRSAEncryption
        Issuer: O=Freifunk M\xC3\x83\xC2\xBCnchen, CN=Freifunk M\xC3\x83\xC2\xBCnchen etcd CA Root
        Validity
            Not Before: Jan  1 00:00:00 1970 GMT
            Not After : Dec 31 23:59:59 9999 GMT
        Subject: O=Freifunk M\xC3\x83\xC2\xBCnchen, CN=Freifunk M\xC3\x83\xC2\xBCnchen parker-gw01 (server)
        Subject Public Key Info:
            Public Key Algorithm: rsaEncryption
                Public-Key: (2048 bit)
                Modulus:
                    00:a7:b6:98:cb:b9:a4:62:e1:34:45:6c:69:c9:5b:
                    da:7e:f8:e9:b5:c4:40:5d:40:8a:73:ee:cd:68:e0:
                    c5:d4:d9:23:44:05:7a:42:c6:3a:af:8c:f2:80:4e:
                    d3:09:2b:1d:fb:5b:69:2e:df:9a:9a:fa:cc:94:8c:
                    b9:28:5d:5d:28:ed:0a:20:43:98:f4:d6:74:3a:05:
                    df:c7:eb:41:72:be:01:7c:56:7f:61:0d:16:87:8a:
                    fd:b0:eb:4d:d4:54:82:1e:21:41:01:cc:85:2a:92:
                    e3:5e:4b:a5:86:04:14:ec:14:65:cf:62:34:ff:0e:
                    5b:b0:30:53:b3:61:0d:45:9f:78:c3:0c:3a:9f:41:
                    51:fe:83:54:87:49:2d:0e:3c:9b:4d:b1:0a:40:47:
                    69:21:02:93:8d:b7:e1:87:60:8e:22:74:a6:b8:34:
                    ba:08:94:4b:30:17:19:e5:ec:f5:b3:15:b5:74:9e:
                    67:de:ad:09:42:69:a1:d0:d6:de:a8:ca:97:1a:de:
                    56:41:16:6c:9b:79:4b:61:a4:ca:e8:a8:46:c3:da:
                    48:f0:bb:e7:09:93:8a:0f:b4:10:1e:f8:ba:7c:b6:
                    71:57:7d:11:c9:fd:cd:ff:2d:0a:83:3e:3b:3b:6c:
                    44:59:bb:4a:23:e3:c1:1a:e7:7a:3b:05:ff:fc:53:
                    9a:33
                Exponent: 65537 (0x10001)
        X509v3 extensions:
            X509v3 Subject Key Identifier: 
                4F:FE:45:56:44:87:70:9A:DC:91:8C:C0:DD:12:23:B7:48:B4:1A:13
            X509v3 Authority Key Identifier: 
                keyid:6C:12:E9:36:70:96:ED:B1:DD:17:53:F0:7D:78:77:3A:99:05:B3:6B
                DirName:/O=Freifunk M\xC3\x83\xC2\xBCnchen/CN=Freifunk M\xC3\x83\xC2\xBCnchen etcd CA Root
                serial:01
            X509v3 Basic Constraints: 
                CA:FALSE
            X509v3 Extended Key Usage: 
                TLS Web Server Authentication, TLS Web Client Authentication
            X509v3 Subject Alternative Name: 
                IP Address:10.0.0.1
    Signature Algorithm: sha256WithRSAEncryption
    Signature Value:
        4e:6a:7f:f3:f5:36:e0:1b:ee:79:8e:75:f8:8c:d4:e7:f0:cf:
        0c:a7:27:21:5f:35:87:6d:9f:98:00:bd:70:41:c2:bf:2e:68:
        58:96:e7:1a:81:8b:39:47:44:e4:62:5b:c9:72:23:4f:61:ad:
        6f:0a:2c:18:f9:61:05:a8:2d:93:fa:f3:00:52:c8:c2:92:e4:
        f1:15:cb:6f:38:af:9a:18:be:32:73:28:38:52:44:e0:2e:84:
        b6:02:f1:24:ec:53:83:c5:d1:42:a0:9d:26:90:85:3c:44:0f:
        50:48:8c:5c:b0:54:d5:1a:8a:e4:3c:d2:a1:64:cd:44:ba:b0:
        f7:ea:16:db:f0:cb:7d:0e:01:70:23:96:df:77:f2:d8:6e:3c:
        22:0a:81:77:af:88:2f:6e:3c:b7:96:ef:e8:33:0e:e2:ac:9c:
        e2:14:a2:7c:9e:de:58:02:31:dc:19:78:5c:86:ee:3a:dc:72:
        57:34:4e:89:74:ee:f1:99:e8:b6:97:02:e4:3e:e2:25:df:76:
        f3:5c:42:c2:a5:9b:f5:d3:8b:9c:5e:cf:6a:af:23:e2:88:9e:
        15:b7:23:78:05:e2:19:41:da:2d:66:dc:b7:be:d9:65:7d:13:
        f8:ef:03:86:31:2b:4e:00:ea:e3:56:0a:a0:97:a0:c6:b9:68:
        bf:a8:09:f6
-----BEGIN CERTIFICATE-----
MIID6DCCAtCgAwIBAgIBAjANBgkqhkiG9w0BAQsFADBJMRwwGgYDVQQKDBNGcmVp
ZnVuayBNw4PCvG5jaGVuMSkwJwYDVQQDDCBGcmVpZnVuayBNw4PCvG5jaGVuIGV0
Y2QgQ0EgUm9vdDAgFw03MDAxMDEwMDAwMDBaGA85OTk5MTIzMTIzNTk1OVowUTEc
MBoGA1UECgwTRnJlaWZ1bmsgTcODwrxuY2hlbjExMC8GA1UEAwwoRnJlaWZ1bmsg
TcODwrxuY2hlbiBwYXJrZXItZ3cwMSAoc2VydmVyKTCCASIwDQYJKoZIhvcNAQEB
BQADggEPADCCAQoCggEBAKe2mMu5pGLhNEVsaclb2n746bXEQF1AinPuzWjgxdTZ
I0QFekLGOq+M8oBO0wkrHftbaS7fmpr6zJSMuShdXSjtCiBDmPTWdDoF38frQXK+
AXxWf2ENFoeK/bDrTdRUgh4hQQHMhSqS415LpYYEFOwUZc9iNP8OW7AwU7NhDUWf
eMMMOp9BUf6DVIdJLQ48m02xCkBHaSECk4234YdgjiJ0prg0ugiUSzAXGeXs9bMV
tXSeZ96tCUJpodDW3qjKlxreVkEWbJt5S2GkyuioRsPaSPC75wmTig+0EB74uny2
cVd9Ecn9zf8tCoM+OztsRFm7SiPjwRrnejsF//xTmjMCAwEAAaOB0DCBzTAdBgNV
HQ4EFgQUT/5FVkSHcJrckYzA3RIjt0i0GhMwcQYDVR0jBGowaIAUbBLpNnCW7bHd
F1PwfXh3OpkFs2uhTaRLMEkxHDAaBgNVBAoME0ZyZWlmdW5rIE3Dg8K8bmNoZW4x
KTAnBgNVBAMMIEZyZWlmdW5rIE3Dg8K8bmNoZW4gZXRjZCBDQSBSb290ggEBMAkG
A1UdEwQCMAAwHQYDVR0lBBYwFAYIKwYBBQUHAwEGCCsGAQUFBwMCMA8GA1UdEQQI
MAaHBAoAAAEwDQYJKoZIhvcNAQELBQADggEBAE5qf/P1NuAb7nmOdfiM1Ofwzwyn
JyFfNYdtn5gAvXBBwr8uaFiW5xqBizlHRORiW8lyI09hrW8KLBj5YQWoLZP68wBS
yMKS5PEVy284r5oYvjJzKDhSROAuhLYC8STsU4PF0UKgnSaQhTxED1BIjFywVNUa
iuQ80qFkzUS6sPfqFtvwy30OAXAjlt938thuPCIKgXeviC9uPLeW7+gzDuKsnOIU
onye3lgCMdwZeFyG7jrcclc0Tol07vGZ6LaXAuQ+4iXfdvNcQsKlm/XTi5xez2qv
I+KInhW3I3gF4hlB2i1m3Le+2WV9E/jvA4YxK04A6uNWCqCXoMa5aL+oCfY=
-----END CERTIFICATE-----
