Certificate:
    Data:
        Version: 3 (0x2)
        Serial Number: 6 (0x6)
        Signature Algorithm: sha256WithRSAEncryption
        Issuer: O=Freifunk M\xC3\x83\xC2\xBCnchen, CN=Freifunk M\xC3\x83\xC2\xBCnchen etcd CA Root
        Validity
            Not Before: Jan  1 00:00:00 1970 GMT
            Not After : Dec 31 23:59:59 9999 GMT
        Subject: O=Freifunk M\xC3\x83\xC2\xBCnchen, CN=Freifunk M\xC3\x83\xC2\xBCnchen parker-gw01 (client)
        Subject Public Key Info:
            Public Key Algorithm: rsaEncryption
                Public-Key: (2048 bit)
                Modulus:
                    00:a7:34:70:8a:03:57:de:1d:ee:64:db:37:2d:16:
                    74:63:f1:95:00:62:62:24:a3:e8:4b:bb:33:8d:55:
                    41:95:c1:56:12:80:cb:4f:44:21:8a:ad:2b:7c:c1:
                    81:07:69:e7:9f:f1:54:8d:47:59:2b:af:70:fd:a6:
                    0f:80:bc:fc:b0:04:c2:a8:16:b6:9a:7a:6a:d9:2e:
                    c9:e9:c9:fb:8d:67:40:d1:fe:3b:67:d0:f6:39:0e:
                    89:71:c6:6c:4b:57:13:09:41:f9:46:89:a9:ac:e3:
                    4f:ba:48:2b:7e:a8:c8:19:e2:d1:07:f2:11:32:c9:
                    a5:07:13:b9:e0:05:ec:41:9f:b1:de:9d:cf:6d:97:
                    f5:ed:17:da:3b:b2:30:f0:f8:a3:97:5e:9d:28:bf:
                    8e:85:07:d9:6c:c2:5a:d3:1b:78:de:e1:d9:a5:93:
                    68:71:7d:ec:d9:c8:6d:7e:f9:d4:a4:7e:eb:ef:70:
                    25:35:d9:f6:1b:07:85:0a:8b:7a:08:8d:1e:3c:23:
                    75:3a:d4:6d:97:d5:ee:4d:e1:0d:2c:e6:35:ac:f2:
                    ca:a0:45:b9:1a:d4:4f:5b:1e:aa:16:a5:1d:16:ea:
                    40:1f:cc:bc:83:a5:50:4e:29:56:b0:07:57:f6:1a:
                    d2:e3:31:36:50:92:89:23:7b:89:c3:5b:4f:ff:aa:
                    eb:7d
                Exponent: 65537 (0x10001)
        X509v3 extensions:
            X509v3 Subject Key Identifier: 
                3F:0B:E3:98:B4:D2:9B:8A:37:C6:1E:4B:32:33:39:13:DB:89:4C:E1
            X509v3 Authority Key Identifier: 
                keyid:6C:12:E9:36:70:96:ED:B1:DD:17:53:F0:7D:78:77:3A:99:05:B3:6B
                DirName:/O=Freifunk M\xC3\x83\xC2\xBCnchen/CN=Freifunk M\xC3\x83\xC2\xBCnchen etcd CA Root
                serial:01
            X509v3 Basic Constraints: 
                CA:FALSE
            X509v3 Extended Key Usage: 
                TLS Web Client Authentication
    Signature Algorithm: sha256WithRSAEncryption
    Signature Value:
        31:86:22:fc:6e:f8:5b:59:0a:af:66:c4:e3:6f:8d:55:20:3a:
        d6:f9:cd:80:bf:93:c3:0c:61:45:9f:8c:0f:48:b0:96:7d:14:
        bf:67:a9:2f:78:14:0d:0e:63:6e:76:ec:5c:06:e1:5e:58:cf:
        5b:3b:d2:fc:b3:df:72:97:7b:b1:a3:e8:49:6b:36:0b:e2:b8:
        e6:3a:a7:9f:67:fe:58:ec:0d:e5:62:95:70:d9:57:bd:c0:57:
        30:b6:e0:93:3d:9b:32:6a:87:49:78:ab:d6:de:65:cb:aa:00:
        d8:89:9e:07:66:6d:49:1f:90:6c:7e:f6:0a:e6:26:69:2b:3e:
        e7:0b:22:41:d0:a4:34:a2:96:9c:c8:d4:ff:5b:ad:e5:f2:36:
        0e:fc:f6:7d:c3:67:04:d4:4e:0f:6f:72:95:0d:29:fd:fd:ef:
        01:2c:e7:4e:1e:66:2d:04:91:41:48:d4:1b:46:3a:38:5a:7e:
        df:cb:df:48:bd:a5:34:d9:6c:0c:94:0b:2c:0f:99:14:b3:6d:
        e3:4c:39:55:4e:58:cd:bb:86:3b:ea:06:ed:4c:f8:0e:92:98:
        e8:23:5b:66:90:b1:f9:d6:47:bf:6a:b4:44:f8:56:e8:27:9e:
        a8:e4:64:40:b9:f0:81:50:6f:79:40:b0:41:0f:88:4a:61:d8:
        31:26:01:49
-----BEGIN CERTIFICATE-----
MIIDzTCCArWgAwIBAgIBBjANBgkqhkiG9w0BAQsFADBJMRwwGgYDVQQKDBNGcmVp
ZnVuayBNw4PCvG5jaGVuMSkwJwYDVQQDDCBGcmVpZnVuayBNw4PCvG5jaGVuIGV0
Y2QgQ0EgUm9vdDAgFw03MDAxMDEwMDAwMDBaGA85OTk5MTIzMTIzNTk1OVowUTEc
MBoGA1UECgwTRnJlaWZ1bmsgTcODwrxuY2hlbjExMC8GA1UEAwwoRnJlaWZ1bmsg
TcODwrxuY2hlbiBwYXJrZXItZ3cwMSAoY2xpZW50KTCCASIwDQYJKoZIhvcNAQEB
BQADggEPADCCAQoCggEBAKc0cIoDV94d7mTbNy0WdGPxlQBiYiSj6Eu7M41VQZXB
VhKAy09EIYqtK3zBgQdp55/xVI1HWSuvcP2mD4C8/LAEwqgWtpp6atkuyenJ+41n
QNH+O2fQ9jkOiXHGbEtXEwlB+UaJqazjT7pIK36oyBni0QfyETLJpQcTueAF7EGf
sd6dz22X9e0X2juyMPD4o5denSi/joUH2WzCWtMbeN7h2aWTaHF97NnIbX751KR+
6+9wJTXZ9hsHhQqLegiNHjwjdTrUbZfV7k3hDSzmNazyyqBFuRrUT1seqhalHRbq
QB/MvIOlUE4pVrAHV/Ya0uMxNlCSiSN7icNbT/+q630CAwEAAaOBtTCBsjAdBgNV
HQ4EFgQUPwvjmLTSm4o3xh5LMjM5E9uJTOEwcQYDVR0jBGowaIAUbBLpNnCW7bHd
F1PwfXh3OpkFs2uhTaRLMEkxHDAaBgNVBAoME0ZyZWlmdW5rIE3Dg8K8bmNoZW4x
KTAnBgNVBAMMIEZyZWlmdW5rIE3Dg8K8bmNoZW4gZXRjZCBDQSBSb290ggEBMAkG
A1UdEwQCMAAwEwYDVR0lBAwwCgYIKwYBBQUHAwIwDQYJKoZIhvcNAQELBQADggEB
ADGGIvxu+FtZCq9mxONvjVUgOtb5zYC/k8MMYUWfjA9IsJZ9FL9nqS94FA0OY252
7FwG4V5Yz1s70vyz33KXe7Gj6ElrNgviuOY6p59n/ljsDeVilXDZV73AVzC24JM9
mzJqh0l4q9beZcuqANiJngdmbUkfkGx+9grmJmkrPucLIkHQpDSilpzI1P9breXy
Ng789n3DZwTUTg9vcpUNKf397wEs504eZi0EkUFI1BtGOjhaft/L30i9pTTZbAyU
CywPmRSzbeNMOVVOWM27hjvqBu1M+A6SmOgjW2aQsfnWR79qtET4VugnnqjkZEC5
8IFQb3lAsEEPiEph2DEmAUk=
-----END CERTIFICATE-----
