Certificate:
    Data:
        Version: 3 (0x2)
        Serial Number: 3 (0x3)
    Signature Algorithm: sha256WithRSAEncryption
        Issuer: O=Freifunk Braunschweig, CN=Freifunk Braunschweig etcd CA Root
        Validity
            Not Before: Jan  1 00:00:00 1970 GMT
            Not After : Dec 31 23:59:59 9999 GMT
        Subject: O=Freifunk Braunschweig, CN=Freifunk Braunschweig concentrator2 (server)
        Subject Public Key Info:
            Public Key Algorithm: rsaEncryption
                Public-Key: (2048 bit)
                Modulus:
                    00:d1:c1:bc:23:fe:4b:9d:42:7a:8d:1d:c3:6b:48:
                    33:2c:45:5e:4f:98:ce:d7:e7:11:c6:03:0b:69:a5:
                    e7:84:73:53:a0:3f:34:b9:e1:64:f8:81:12:38:fa:
                    5d:2d:cb:37:91:29:e2:1a:4f:82:8f:48:77:7e:78:
                    c8:df:6e:5b:38:f6:01:f9:3c:32:ee:ff:6e:f6:71:
                    2f:c7:c9:4a:5d:27:73:20:2a:ed:19:54:8d:30:a7:
                    11:ed:f2:dd:5f:1c:bb:01:8c:94:25:6d:d2:96:3b:
                    9f:ca:b7:34:d5:3f:5f:ed:07:2a:fd:ec:5e:05:50:
                    3a:30:5a:ec:44:eb:fe:b7:16:d0:32:a7:fc:b5:20:
                    82:40:26:5f:b7:77:f8:31:50:7b:2b:c9:c0:89:83:
                    94:01:8d:c8:7b:a7:8d:18:ec:74:1c:b6:0d:e0:09:
                    6c:4e:b3:39:a0:e7:78:fb:d1:67:d4:ca:cf:21:24:
                    a0:f1:69:48:1b:43:34:4f:77:7d:b7:11:b3:ae:f0:
                    73:8d:e9:36:37:8f:d3:62:6e:21:58:5b:98:d9:53:
                    d2:10:90:17:28:c2:ca:97:39:f2:0f:05:14:33:1b:
                    fb:c4:f3:77:5d:8b:4d:39:9d:47:94:14:9d:da:d7:
                    93:f6:40:4e:34:5e:5b:37:a8:2c:43:bd:5a:64:3b:
                    6d:65
                Exponent: 65537 (0x10001)
        X509v3 extensions:
            X509v3 Subject Key Identifier: 
                B3:B9:F5:6E:77:B3:26:F2:B7:64:D7:57:BF:AB:03:39:71:86:79:A0
            X509v3 Authority Key Identifier: 
                keyid:77:20:C8:2E:65:6B:15:7B:6F:5A:D8:EC:CC:92:54:D0:41:D6:98:8A
                DirName:/O=Freifunk Braunschweig/CN=Freifunk Braunschweig etcd CA Root
                serial:01

            X509v3 Basic Constraints: 
                CA:FALSE
            X509v3 Extended Key Usage: 
                TLS Web Server Authentication, TLS Web Client Authentication
            X509v3 Subject Alternative Name: 
                IP Address:172.16.1.2
    Signature Algorithm: sha256WithRSAEncryption
         a9:f6:19:21:47:d8:dd:0e:92:30:70:a9:85:2e:81:54:db:72:
         17:f2:e4:71:85:b8:87:fa:87:7c:bf:80:ad:d7:01:8a:b2:c7:
         42:cb:55:a4:d4:26:9f:49:07:7b:df:0c:bc:9d:df:b8:dc:c9:
         03:48:62:8b:67:7c:16:7a:83:c4:46:fd:a6:53:b8:03:ae:e1:
         00:bb:af:b8:ac:a9:24:ea:ab:ee:2c:d1:f5:8c:55:5c:3e:9f:
         bc:6a:b9:eb:1c:eb:54:73:fc:e7:5f:f0:4a:0f:6b:4a:ac:c4:
         c0:af:ac:c8:f9:96:07:74:43:9d:8c:7d:98:c3:e7:a5:56:83:
         88:60:5a:1e:7c:c5:c2:9c:97:bf:a2:83:fb:2e:76:1d:fe:ba:
         8c:6e:4d:25:be:97:00:c9:0d:97:91:75:47:12:c9:14:1d:aa:
         29:1f:53:21:ed:07:7d:5d:4c:6b:68:f7:93:48:f1:48:40:2f:
         9c:53:6e:e5:42:eb:ad:65:fc:a2:a8:ad:5d:b4:b0:3d:d1:e5:
         15:ea:75:26:66:dd:c4:17:bb:c5:5c:ed:93:f4:a1:41:49:09:
         79:f1:ff:b9:f6:96:a7:ab:f4:e9:ae:18:fb:94:39:fe:75:51:
         a9:db:8d:6d:51:ad:eb:1f:2e:6d:5a:b0:0b:a5:53:7f:5a:fe:
         9c:e1:ad:50
-----BEGIN CERTIFICATE-----
MIID+DCCAuCgAwIBAgIBAzANBgkqhkiG9w0BAQsFADBNMR4wHAYDVQQKDBVGcmVp
ZnVuayBCcmF1bnNjaHdlaWcxKzApBgNVBAMMIkZyZWlmdW5rIEJyYXVuc2Nod2Vp
ZyBldGNkIENBIFJvb3QwIhgPMTk3MDAxMDEwMDAwMDBaGA85OTk5MTIzMTIzNTk1
OVowVzEeMBwGA1UECgwVRnJlaWZ1bmsgQnJhdW5zY2h3ZWlnMTUwMwYDVQQDDCxG
cmVpZnVuayBCcmF1bnNjaHdlaWcgY29uY2VudHJhdG9yMiAoc2VydmVyKTCCASIw
DQYJKoZIhvcNAQEBBQADggEPADCCAQoCggEBANHBvCP+S51Ceo0dw2tIMyxFXk+Y
ztfnEcYDC2ml54RzU6A/NLnhZPiBEjj6XS3LN5Ep4hpPgo9Id354yN9uWzj2Afk8
Mu7/bvZxL8fJSl0ncyAq7RlUjTCnEe3y3V8cuwGMlCVt0pY7n8q3NNU/X+0HKv3s
XgVQOjBa7ETr/rcW0DKn/LUggkAmX7d3+DFQeyvJwImDlAGNyHunjRjsdBy2DeAJ
bE6zOaDnePvRZ9TKzyEkoPFpSBtDNE93fbcRs67wc43pNjeP02JuIVhbmNlT0hCQ
FyjCypc58g8FFDMb+8Tzd12LTTmdR5QUndrXk/ZATjReWzeoLEO9WmQ7bWUCAwEA
AaOB1DCB0TAdBgNVHQ4EFgQUs7n1bnezJvK3ZNdXv6sDOXGGeaAwdQYDVR0jBG4w
bIAUdyDILmVrFXtvWtjszJJU0EHWmIqhUaRPME0xHjAcBgNVBAoMFUZyZWlmdW5r
IEJyYXVuc2Nod2VpZzErMCkGA1UEAwwiRnJlaWZ1bmsgQnJhdW5zY2h3ZWlnIGV0
Y2QgQ0EgUm9vdIIBATAJBgNVHRMEAjAAMB0GA1UdJQQWMBQGCCsGAQUFBwMBBggr
BgEFBQcDAjAPBgNVHREECDAGhwSsEAECMA0GCSqGSIb3DQEBCwUAA4IBAQCp9hkh
R9jdDpIwcKmFLoFU23IX8uRxhbiH+od8v4Ct1wGKssdCy1Wk1CafSQd73wy8nd+4
3MkDSGKLZ3wWeoPERv2mU7gDruEAu6+4rKkk6qvuLNH1jFVcPp+8arnrHOtUc/zn
X/BKD2tKrMTAr6zI+ZYHdEOdjH2Yw+elVoOIYFoefMXCnJe/ooP7LnYd/rqMbk0l
vpcAyQ2XkXVHEskUHaopH1Mh7Qd9XUxraPeTSPFIQC+cU27lQuutZfyiqK1dtLA9
0eUV6nUmZt3EF7vFXO2T9KFBSQl58f+59panq/Tprhj7lDn+dVGp241tUa3rHy5t
WrALpVN/Wv6c4a1Q
-----END CERTIFICATE-----
