Certificate:
    Data:
        Version: 3 (0x2)
        Serial Number: 6 (0x6)
    Signature Algorithm: sha256WithRSAEncryption
        Issuer: O=Freifunk Braunschweig, CN=Freifunk Braunschweig etcd CA Root
        Validity
            Not Before: Jan  1 00:00:00 1970 GMT
            Not After : Dec 31 23:59:59 9999 GMT
        Subject: O=Freifunk Braunschweig, CN=Freifunk Braunschweig concentrator2 (client)
        Subject Public Key Info:
            Public Key Algorithm: rsaEncryption
                Public-Key: (2048 bit)
                Modulus:
                    00:de:b4:50:51:c9:c7:ff:d9:aa:08:d1:97:7c:e6:
                    6d:d6:55:c1:4f:4f:6d:65:89:7b:4a:dd:05:db:cb:
                    e9:15:36:52:42:9e:d7:5f:cb:fb:54:e4:9e:c7:9f:
                    d4:08:ac:1e:a3:73:82:9d:20:cd:f3:a7:c6:e2:f6:
                    5d:d3:ca:f3:98:84:5c:dc:c1:c3:f2:9c:78:48:2d:
                    23:28:00:62:50:68:11:7c:6a:77:af:74:5f:65:a0:
                    9f:b6:e9:20:05:68:da:d1:24:bf:e7:47:82:fb:1b:
                    99:23:1f:c5:ab:28:cd:4e:8e:a4:46:9c:bf:da:68:
                    a2:a8:51:8f:b3:01:1e:e7:ca:1c:30:39:2d:db:d4:
                    4a:ac:ba:6c:cf:a3:06:1d:c9:ff:9f:cb:c1:a3:6b:
                    2c:e8:f5:b9:75:61:f5:82:d6:50:0c:ba:94:38:23:
                    13:62:dd:4c:80:be:52:aa:db:29:b8:43:7c:e6:f8:
                    50:a4:fb:95:83:d9:0b:46:60:db:a7:8d:28:05:fe:
                    11:fd:3f:5e:9c:c1:47:d6:d4:23:58:29:82:8e:9e:
                    25:9f:12:0c:33:75:a3:8f:7e:92:73:a0:79:df:4f:
                    23:6a:18:76:0b:91:f5:60:49:cd:ff:e7:aa:65:6f:
                    fb:de:5c:51:d4:ae:c0:49:e5:e2:95:dc:ff:d4:7c:
                    46:0b
                Exponent: 65537 (0x10001)
        X509v3 extensions:
            X509v3 Subject Key Identifier: 
                92:E0:64:81:23:26:F9:31:8B:17:85:A7:BA:CD:06:DD:67:D7:23:7E
            X509v3 Authority Key Identifier: 
                keyid:77:20:C8:2E:65:6B:15:7B:6F:5A:D8:EC:CC:92:54:D0:41:D6:98:8A
                DirName:/O=Freifunk Braunschweig/CN=Freifunk Braunschweig etcd CA Root
                serial:01

            X509v3 Basic Constraints: 
                CA:FALSE
            X509v3 Extended Key Usage: 
                TLS Web Client Authentication
    Signature Algorithm: sha256WithRSAEncryption
         79:fe:ea:dd:c3:9b:b0:13:f3:fa:24:b6:17:10:53:d1:c8:74:
         d9:d8:5b:a0:67:9a:73:33:a0:86:f7:aa:ae:c8:90:5a:00:f5:
         54:ca:1c:83:4c:3b:e6:bf:69:be:a5:64:c9:24:1f:a7:49:49:
         e4:c1:04:68:33:d2:61:ed:1e:57:70:f9:c4:61:81:1d:3b:58:
         43:06:6a:e1:a2:3d:d0:b4:90:2d:dc:b5:5b:8c:19:9e:da:51:
         17:08:58:e2:4b:78:c0:9c:6f:3a:da:a6:18:a8:f6:93:21:26:
         17:ff:a9:ea:17:06:e5:1b:66:fe:6f:9a:e3:4d:c0:e3:4e:86:
         b7:9d:3a:6b:ee:ae:05:9d:52:e3:d1:3e:e0:df:aa:05:4a:7b:
         78:28:bd:fa:e9:ae:87:83:29:ab:be:35:23:ef:3d:e5:c5:a1:
         e3:f1:57:09:7d:a8:80:c7:90:c4:49:bd:59:c6:fb:62:69:00:
         58:8b:62:27:a6:38:b7:92:66:85:0c:51:1f:f8:49:50:7d:4e:
         98:cf:61:b5:50:85:23:16:84:f6:38:19:65:94:89:b5:d7:5c:
         cb:92:af:46:19:f4:4c:fc:41:87:33:83:91:af:32:00:aa:e4:
         99:f6:d5:40:3d:fa:92:cd:ce:8c:4c:7e:c7:81:20:6c:68:65:
         e8:0f:3a:95
-----BEGIN CERTIFICATE-----
MIID3TCCAsWgAwIBAgIBBjANBgkqhkiG9w0BAQsFADBNMR4wHAYDVQQKDBVGcmVp
ZnVuayBCcmF1bnNjaHdlaWcxKzApBgNVBAMMIkZyZWlmdW5rIEJyYXVuc2Nod2Vp
ZyBldGNkIENBIFJvb3QwIhgPMTk3MDAxMDEwMDAwMDBaGA85OTk5MTIzMTIzNTk1
OVowVzEeMBwGA1UECgwVRnJlaWZ1bmsgQnJhdW5zY2h3ZWlnMTUwMwYDVQQDDCxG
cmVpZnVuayBCcmF1bnNjaHdlaWcgY29uY2VudHJhdG9yMiAoY2xpZW50KTCCASIw
DQYJKoZIhvcNAQEBBQADggEPADCCAQoCggEBAN60UFHJx//ZqgjRl3zmbdZVwU9P
bWWJe0rdBdvL6RU2UkKe11/L+1Tknsef1AisHqNzgp0gzfOnxuL2XdPK85iEXNzB
w/KceEgtIygAYlBoEXxqd690X2Wgn7bpIAVo2tEkv+dHgvsbmSMfxasozU6OpEac
v9pooqhRj7MBHufKHDA5LdvUSqy6bM+jBh3J/5/LwaNrLOj1uXVh9YLWUAy6lDgj
E2LdTIC+UqrbKbhDfOb4UKT7lYPZC0Zg26eNKAX+Ef0/XpzBR9bUI1gpgo6eJZ8S
DDN1o49+knOged9PI2oYdguR9WBJzf/nqmVv+95cUdSuwEnl4pXc/9R8RgsCAwEA
AaOBuTCBtjAdBgNVHQ4EFgQUkuBkgSMm+TGLF4Wnus0G3WfXI34wdQYDVR0jBG4w
bIAUdyDILmVrFXtvWtjszJJU0EHWmIqhUaRPME0xHjAcBgNVBAoMFUZyZWlmdW5r
IEJyYXVuc2Nod2VpZzErMCkGA1UEAwwiRnJlaWZ1bmsgQnJhdW5zY2h3ZWlnIGV0
Y2QgQ0EgUm9vdIIBATAJBgNVHRMEAjAAMBMGA1UdJQQMMAoGCCsGAQUFBwMCMA0G
CSqGSIb3DQEBCwUAA4IBAQB5/urdw5uwE/P6JLYXEFPRyHTZ2FugZ5pzM6CG96qu
yJBaAPVUyhyDTDvmv2m+pWTJJB+nSUnkwQRoM9Jh7R5XcPnEYYEdO1hDBmrhoj3Q
tJAt3LVbjBme2lEXCFjiS3jAnG862qYYqPaTISYX/6nqFwblG2b+b5rjTcDjToa3
nTpr7q4FnVLj0T7g36oFSnt4KL366a6HgymrvjUj7z3lxaHj8VcJfaiAx5DESb1Z
xvtiaQBYi2Inpji3kmaFDFEf+ElQfU6Yz2G1UIUjFoT2OBlllIm111zLkq9GGfRM
/EGHM4ORrzIAquSZ9tVAPfqSzc6MTH7HgSBsaGXoDzqV
-----END CERTIFICATE-----
