Certificate:
    Data:
        Version: 3 (0x2)
        Serial Number: 2 (0x2)
        Signature Algorithm: sha256WithRSAEncryption
        Issuer: O=Freifunk M\xC3\x83\xC2\xBCnchen, CN=Freifunk M\xC3\x83\xC2\xBCnchen etcd CA Root
        Validity
            Not Before: Jan  1 00:00:00 1970 GMT
            Not After : Dec 31 23:59:59 9999 GMT
        Subject: O=Freifunk M\xC3\x83\xC2\xBCnchen, CN=Freifunk M\xC3\x83\xC2\xBCnchen parker-vm01 (server)
        Subject Public Key Info:
            Public Key Algorithm: rsaEncryption
                Public-Key: (2048 bit)
                Modulus:
                    00:a5:3f:26:13:04:fd:84:95:38:b1:53:6d:f7:82:
                    4f:b3:2e:8a:a2:63:89:06:4c:6a:72:cf:4b:cd:92:
                    a4:3e:59:05:63:a0:a0:08:c7:b0:4e:0b:78:48:2f:
                    3d:e6:ed:45:c7:71:ea:61:47:78:17:4d:95:e1:25:
                    13:ba:9c:94:8c:15:26:0c:45:d2:dd:f5:c9:19:1a:
                    ec:52:f2:d5:0a:89:b6:3b:fd:08:d7:81:7c:c2:ed:
                    c3:c8:78:de:4d:ab:fb:15:60:45:94:8d:ad:ca:fb:
                    99:bc:82:cb:99:38:4d:64:2f:87:77:ac:c8:c1:fa:
                    88:c9:1b:72:e2:c5:21:6c:ca:6c:1d:ca:8a:14:4f:
                    f1:5d:d2:c5:2c:c9:58:fc:c8:fb:a4:ca:b5:9c:1e:
                    27:f3:96:34:de:a3:c4:7c:5e:20:1d:9e:c4:0d:07:
                    f2:54:73:fc:cf:b7:4f:18:ad:a2:37:21:16:16:f9:
                    04:eb:a3:18:a8:73:fe:98:05:3f:90:38:59:62:5b:
                    09:0c:b9:cb:0c:3a:c4:e7:f0:c8:22:cb:3d:01:e8:
                    d1:0c:6f:30:5a:71:d8:83:2b:98:ea:9b:e1:64:9b:
                    f8:d3:00:09:17:ee:9e:5d:3f:c4:da:9a:29:9a:8e:
                    20:1a:0b:44:f9:66:24:a9:1b:a1:e2:bc:2a:ab:21:
                    4a:77
                Exponent: 65537 (0x10001)
        X509v3 extensions:
            X509v3 Subject Key Identifier: 
                31:4B:5E:4A:E7:44:52:E1:58:58:C6:F9:D6:11:A6:C6:7E:CA:01:F4
            X509v3 Authority Key Identifier: 
                keyid:9D:5D:5E:86:06:F1:CD:F0:D8:6F:33:F9:D3:A3:1C:24:17:76:E1:AE
                DirName:/O=Freifunk M\xC3\x83\xC2\xBCnchen/CN=Freifunk M\xC3\x83\xC2\xBCnchen etcd CA Root
                serial:01
            X509v3 Basic Constraints: 
                CA:FALSE
            X509v3 Extended Key Usage: 
                TLS Web Server Authentication, TLS Web Client Authentication
            X509v3 Subject Alternative Name: 
                IP Address:172.16.1.1
    Signature Algorithm: sha256WithRSAEncryption
    Signature Value:
        10:0a:da:84:ab:9d:81:20:50:00:a2:9f:ff:86:f8:09:47:7d:
        c9:05:eb:27:a8:07:1e:6b:e4:1f:ce:df:39:4e:37:e7:8c:1f:
        e7:66:6e:44:32:0c:ff:14:89:71:3c:97:fa:8e:3a:0f:06:7a:
        99:41:80:8c:fe:9f:3f:3b:1c:e9:68:64:29:2a:22:cc:ff:5e:
        9a:6d:3c:58:45:27:17:61:6d:f9:88:0e:ee:65:16:f6:b4:c1:
        e5:5f:46:af:6d:fd:16:da:d7:92:6b:29:49:61:94:8e:38:43:
        9a:42:78:1c:ab:21:cb:f7:ad:0b:64:23:c1:d5:c5:29:3a:a2:
        06:4f:94:60:82:3d:1e:6b:06:ec:bf:8f:0c:53:1f:48:7a:75:
        16:dc:34:7a:37:ad:ca:06:b3:37:ba:81:af:9d:02:6f:62:ff:
        ad:93:d3:0f:fe:ab:ed:6e:cb:c5:a5:86:c3:56:6f:e4:fb:ae:
        b6:47:46:22:b8:f4:01:11:c4:bd:a2:a9:36:74:be:57:7e:b8:
        86:51:36:59:75:e8:9a:63:03:84:e1:c1:46:fd:02:62:59:2b:
        47:97:75:26:74:8f:3e:46:0d:d6:c1:aa:1b:9f:b6:cb:8f:a2:
        59:ec:00:98:df:a8:46:ba:6f:15:a9:bb:d8:d0:00:f0:31:dd:
        e2:ae:a7:a2
-----BEGIN CERTIFICATE-----
MIID6DCCAtCgAwIBAgIBAjANBgkqhkiG9w0BAQsFADBJMRwwGgYDVQQKDBNGcmVp
ZnVuayBNw4PCvG5jaGVuMSkwJwYDVQQDDCBGcmVpZnVuayBNw4PCvG5jaGVuIGV0
Y2QgQ0EgUm9vdDAgFw03MDAxMDEwMDAwMDBaGA85OTk5MTIzMTIzNTk1OVowUTEc
MBoGA1UECgwTRnJlaWZ1bmsgTcODwrxuY2hlbjExMC8GA1UEAwwoRnJlaWZ1bmsg
TcODwrxuY2hlbiBwYXJrZXItdm0wMSAoc2VydmVyKTCCASIwDQYJKoZIhvcNAQEB
BQADggEPADCCAQoCggEBAKU/JhME/YSVOLFTbfeCT7MuiqJjiQZManLPS82SpD5Z
BWOgoAjHsE4LeEgvPebtRcdx6mFHeBdNleElE7qclIwVJgxF0t31yRka7FLy1QqJ
tjv9CNeBfMLtw8h43k2r+xVgRZSNrcr7mbyCy5k4TWQvh3esyMH6iMkbcuLFIWzK
bB3KihRP8V3SxSzJWPzI+6TKtZweJ/OWNN6jxHxeIB2exA0H8lRz/M+3Txitojch
Fhb5BOujGKhz/pgFP5A4WWJbCQy5yww6xOfwyCLLPQHo0QxvMFpx2IMrmOqb4WSb
+NMACRfunl0/xNqaKZqOIBoLRPlmJKkboeK8KqshSncCAwEAAaOB0DCBzTAdBgNV
HQ4EFgQUMUteSudEUuFYWMb51hGmxn7KAfQwcQYDVR0jBGowaIAUnV1ehgbxzfDY
bzP506McJBd24a6hTaRLMEkxHDAaBgNVBAoME0ZyZWlmdW5rIE3Dg8K8bmNoZW4x
KTAnBgNVBAMMIEZyZWlmdW5rIE3Dg8K8bmNoZW4gZXRjZCBDQSBSb290ggEBMAkG
A1UdEwQCMAAwHQYDVR0lBBYwFAYIKwYBBQUHAwEGCCsGAQUFBwMCMA8GA1UdEQQI
MAaHBKwQAQEwDQYJKoZIhvcNAQELBQADggEBABAK2oSrnYEgUACin/+G+AlHfckF
6yeoBx5r5B/O3zlON+eMH+dmbkQyDP8UiXE8l/qOOg8GeplBgIz+nz87HOloZCkq
Isz/XpptPFhFJxdhbfmIDu5lFva0weVfRq9t/Rba15JrKUlhlI44Q5pCeByrIcv3
rQtkI8HVxSk6ogZPlGCCPR5rBuy/jwxTH0h6dRbcNHo3rcoGsze6ga+dAm9i/62T
0w/+q+1uy8WlhsNWb+T7rrZHRiK49AERxL2iqTZ0vld+uIZRNll16JpjA4ThwUb9
AmJZK0eXdSZ0jz5GDdbBqhuftsuPolnsAJjfqEa6bxWpu9jQAPAx3eKup6I=
-----END CERTIFICATE-----
