Certificate:
    Data:
        Version: 3 (0x2)
        Serial Number: 2 (0x2)
        Signature Algorithm: sha256WithRSAEncryption
        Issuer: O=Freifunk M\xC3\x83\xC2\xBCnchen, CN=Freifunk M\xC3\x83\xC2\xBCnchen etcd CA Root
        Validity
            Not Before: Jan  1 00:00:00 1970 GMT
            Not After : Dec 31 23:59:59 9999 GMT
        Subject: O=Freifunk M\xC3\x83\xC2\xBCnchen, CN=Freifunk M\xC3\x83\xC2\xBCnchen parker-vm01 (server)
        Subject Public Key Info:
            Public Key Algorithm: rsaEncryption
                Public-Key: (2048 bit)
                Modulus:
                    00:bc:cb:8c:45:47:43:6b:12:53:6f:6e:cd:69:86:
                    64:af:31:91:90:f1:97:17:0b:8a:8b:f0:1e:c9:10:
                    68:a9:9d:6a:79:4f:16:11:6c:9b:66:b3:c7:8a:33:
                    bc:1d:9b:2c:ef:89:60:10:09:cf:2c:d8:e3:da:a6:
                    a1:49:c8:f7:5a:03:42:66:27:d5:06:2d:16:02:5a:
                    46:8c:99:0b:d6:fb:77:6f:13:c3:f5:48:af:92:e8:
                    a8:80:f2:f5:87:de:af:a1:96:83:45:81:97:1e:6e:
                    fa:e4:01:7b:3e:a9:14:d5:39:b2:3f:e1:2d:ba:cd:
                    e0:50:37:de:f3:cd:6d:47:0c:30:2f:32:ba:c2:d6:
                    6e:bf:40:9f:76:2a:fb:17:e4:e2:bb:73:9b:13:64:
                    8d:2a:97:f0:eb:0e:6f:62:d9:cd:07:69:98:18:42:
                    a6:e5:c3:8d:b2:8b:6c:19:20:f1:0c:bc:f9:1b:3f:
                    02:01:fd:f4:4b:2e:0f:56:fa:89:61:6d:b4:59:c3:
                    f5:77:e8:93:3b:ab:54:b4:24:e7:87:a9:83:b0:61:
                    77:85:20:c2:b2:ac:d7:fa:45:92:29:bf:eb:7a:9a:
                    3a:8f:2e:d5:e3:a7:c2:17:1e:8a:c1:58:d2:a0:83:
                    57:bd:21:71:de:04:bc:7b:d2:5a:97:aa:24:ee:fb:
                    e5:01
                Exponent: 65537 (0x10001)
        X509v3 extensions:
            X509v3 Subject Key Identifier: 
                B9:54:00:3D:58:31:17:A9:44:11:1A:B3:61:AE:F1:61:E4:AF:65:24
            X509v3 Authority Key Identifier: 
                keyid:D4:1A:BA:7F:8F:54:E4:D8:5C:A5:C5:33:09:15:25:C8:60:B9:14:93
                DirName:/O=Freifunk M\xC3\x83\xC2\xBCnchen/CN=Freifunk M\xC3\x83\xC2\xBCnchen etcd CA Root
                serial:01
            X509v3 Basic Constraints: 
                CA:FALSE
            X509v3 Extended Key Usage: 
                TLS Web Server Authentication, TLS Web Client Authentication
            X509v3 Subject Alternative Name: 
                IP Address:10.0.0.1
    Signature Algorithm: sha256WithRSAEncryption
    Signature Value:
        55:15:cc:0f:b2:0a:7c:4f:4d:2b:9d:21:1d:57:25:e8:13:bf:
        9b:77:c9:8a:8c:f8:82:9b:20:30:94:fe:00:fc:53:c8:4c:49:
        df:cd:e4:b6:37:50:45:04:8f:5d:63:05:46:cc:66:ff:30:d2:
        bf:11:7e:79:73:95:d1:04:d3:50:64:82:2d:04:53:14:cb:5e:
        6c:5f:53:e5:f0:ea:9e:49:65:fb:f4:6f:4e:58:26:67:50:47:
        80:a9:10:b9:a7:9c:ff:fe:31:92:df:7f:89:fb:7d:28:5b:a6:
        03:4c:d8:99:8d:ef:78:8f:85:23:14:6b:86:79:1d:93:14:b7:
        c9:94:ba:ff:a3:a2:b2:77:b0:6f:d6:3f:94:25:2d:4c:e3:05:
        71:b1:e6:d9:5a:d1:9d:f3:d8:a2:9b:d1:d4:2a:c2:f9:d6:b0:
        d7:1d:c4:6a:0a:c1:29:81:87:65:fd:f2:f0:5f:59:8a:b7:9b:
        5b:ea:c1:b3:69:42:5a:36:84:a3:f4:0d:0a:50:1a:d7:5f:ff:
        84:d1:f5:65:a8:f0:32:2b:de:74:8f:f6:59:50:7a:7a:83:cc:
        59:7f:bf:a9:1b:e7:d2:06:f0:74:e6:5a:7d:28:18:36:98:de:
        0b:bd:07:9c:c2:e1:1f:16:30:31:c2:d0:2f:a0:c0:74:0b:e9:
        40:ab:35:35
-----BEGIN CERTIFICATE-----
MIID6DCCAtCgAwIBAgIBAjANBgkqhkiG9w0BAQsFADBJMRwwGgYDVQQKDBNGcmVp
ZnVuayBNw4PCvG5jaGVuMSkwJwYDVQQDDCBGcmVpZnVuayBNw4PCvG5jaGVuIGV0
Y2QgQ0EgUm9vdDAgFw03MDAxMDEwMDAwMDBaGA85OTk5MTIzMTIzNTk1OVowUTEc
MBoGA1UECgwTRnJlaWZ1bmsgTcODwrxuY2hlbjExMC8GA1UEAwwoRnJlaWZ1bmsg
TcODwrxuY2hlbiBwYXJrZXItdm0wMSAoc2VydmVyKTCCASIwDQYJKoZIhvcNAQEB
BQADggEPADCCAQoCggEBALzLjEVHQ2sSU29uzWmGZK8xkZDxlxcLiovwHskQaKmd
anlPFhFsm2azx4ozvB2bLO+JYBAJzyzY49qmoUnI91oDQmYn1QYtFgJaRoyZC9b7
d28Tw/VIr5LoqIDy9Yfer6GWg0WBlx5u+uQBez6pFNU5sj/hLbrN4FA33vPNbUcM
MC8yusLWbr9An3Yq+xfk4rtzmxNkjSqX8OsOb2LZzQdpmBhCpuXDjbKLbBkg8Qy8
+Rs/AgH99EsuD1b6iWFttFnD9XfokzurVLQk54epg7Bhd4UgwrKs1/pFkim/63qa
Oo8u1eOnwhceisFY0qCDV70hcd4EvHvSWpeqJO775QECAwEAAaOB0DCBzTAdBgNV
HQ4EFgQUuVQAPVgxF6lEERqzYa7xYeSvZSQwcQYDVR0jBGowaIAU1Bq6f49U5Nhc
pcUzCRUlyGC5FJOhTaRLMEkxHDAaBgNVBAoME0ZyZWlmdW5rIE3Dg8K8bmNoZW4x
KTAnBgNVBAMMIEZyZWlmdW5rIE3Dg8K8bmNoZW4gZXRjZCBDQSBSb290ggEBMAkG
A1UdEwQCMAAwHQYDVR0lBBYwFAYIKwYBBQUHAwEGCCsGAQUFBwMCMA8GA1UdEQQI
MAaHBAoAAAEwDQYJKoZIhvcNAQELBQADggEBAFUVzA+yCnxPTSudIR1XJegTv5t3
yYqM+IKbIDCU/gD8U8hMSd/N5LY3UEUEj11jBUbMZv8w0r8RfnlzldEE01Bkgi0E
UxTLXmxfU+Xw6p5JZfv0b05YJmdQR4CpELmnnP/+MZLff4n7fShbpgNM2JmN73iP
hSMUa4Z5HZMUt8mUuv+jorJ3sG/WP5QlLUzjBXGx5tla0Z3z2KKb0dQqwvnWsNcd
xGoKwSmBh2X98vBfWYq3m1vqwbNpQlo2hKP0DQpQGtdf/4TR9WWo8DIr3nSP9llQ
enqDzFl/v6kb59IG8HTmWn0oGDaY3gu9B5zC4R8WMDHC0C+gwHQL6UCrNTU=
-----END CERTIFICATE-----
