Certificate:
    Data:
        Version: 3 (0x2)
        Serial Number: 3 (0x3)
        Signature Algorithm: sha256WithRSAEncryption
        Issuer: O=Freifunk M\xC3\x83\xC2\xBCnchen, CN=Freifunk M\xC3\x83\xC2\xBCnchen etcd CA Root
        Validity
            Not Before: Jan  1 00:00:00 1970 GMT
            Not After : Dec 31 23:59:59 9999 GMT
        Subject: O=Freifunk M\xC3\x83\xC2\xBCnchen, CN=Freifunk M\xC3\x83\xC2\xBCnchen parker-vm01 (client)
        Subject Public Key Info:
            Public Key Algorithm: rsaEncryption
                Public-Key: (2048 bit)
                Modulus:
                    00:a9:34:b6:9d:87:6d:fd:6b:66:9f:82:4e:95:5f:
                    2d:92:a7:ee:60:2d:81:3d:c3:99:74:04:18:27:5a:
                    de:f4:7a:02:21:0f:5b:7f:95:03:ed:ab:f9:7c:96:
                    c8:5c:81:18:5b:c1:86:53:c2:5d:bd:bb:c3:bc:20:
                    21:fe:a2:59:fa:fd:41:4e:e2:d4:91:ea:a5:53:4f:
                    c6:7e:60:4f:8b:23:42:c4:03:bd:c6:0b:ad:ae:55:
                    8b:bd:0e:60:5d:2d:8e:08:69:6a:8d:9f:a7:f4:ff:
                    27:d5:14:cd:a2:ff:fd:d2:4f:cd:e7:4f:a3:68:2e:
                    f8:3b:c4:46:ac:28:a3:36:b3:3e:40:bc:90:2e:5a:
                    5f:9f:54:9f:c4:4a:33:67:62:50:10:4b:ea:43:6b:
                    75:49:35:d8:74:87:9a:ce:de:08:2a:7a:8a:66:c0:
                    e8:5b:49:2b:c0:a9:3f:11:f5:67:2e:32:87:9d:3f:
                    9e:fa:41:c9:2d:c1:32:6f:0f:c3:85:ad:41:e0:c0:
                    8d:7f:b7:51:66:5b:20:78:74:a8:47:7a:f7:20:12:
                    fa:20:81:7b:c8:83:05:15:ef:fe:d3:29:11:96:e0:
                    ad:5e:a8:62:78:aa:a9:e4:dd:9f:b6:a3:d1:88:d6:
                    72:c4:45:a6:cc:73:3a:19:5c:6a:db:28:24:1f:27:
                    ea:01
                Exponent: 65537 (0x10001)
        X509v3 extensions:
            X509v3 Subject Key Identifier: 
                B5:B4:AC:65:9B:B7:48:66:C4:BA:6A:D4:BB:1F:91:CD:42:58:C9:81
            X509v3 Authority Key Identifier: 
                keyid:D4:1A:BA:7F:8F:54:E4:D8:5C:A5:C5:33:09:15:25:C8:60:B9:14:93
                DirName:/O=Freifunk M\xC3\x83\xC2\xBCnchen/CN=Freifunk M\xC3\x83\xC2\xBCnchen etcd CA Root
                serial:01
            X509v3 Basic Constraints: 
                CA:FALSE
            X509v3 Extended Key Usage: 
                TLS Web Client Authentication
    Signature Algorithm: sha256WithRSAEncryption
    Signature Value:
        9f:17:65:c7:df:36:e3:21:be:f6:48:48:ca:60:ab:e5:9f:38:
        3a:3f:5b:4b:df:2b:44:00:f8:eb:dd:e1:f9:7e:68:7c:0a:02:
        4a:5a:f1:51:b3:27:e6:70:f7:db:3d:83:47:4c:8f:0e:e2:43:
        c1:22:e4:b4:87:26:56:25:bb:2a:79:55:8b:26:19:72:dc:b3:
        cb:a8:cf:d3:9c:83:3a:91:d8:08:5f:ec:46:28:29:38:fb:62:
        33:c7:38:a4:ee:19:fb:81:14:2a:dc:bb:8f:bd:79:2d:0b:4f:
        81:81:66:47:20:bc:20:77:6d:06:0d:10:be:71:55:23:d8:a7:
        fd:10:2e:62:71:ea:4a:11:0d:29:bb:55:0b:cf:f7:2b:20:d2:
        fc:49:6f:93:89:24:bb:54:ea:62:fa:a4:1d:1f:5a:ee:22:86:
        c1:14:67:37:7f:35:d5:bc:f6:91:40:6f:93:bd:97:65:f8:ac:
        76:8b:c7:08:4f:db:64:b1:ad:fb:de:08:08:9c:c8:c8:2e:f6:
        12:86:5b:c4:70:ac:c6:8a:ff:83:2f:1f:35:21:ae:40:f3:64:
        62:7d:ce:ae:64:ad:62:3c:43:ef:98:4a:cb:dd:c9:9d:11:58:
        8f:cd:61:1c:3f:11:3c:7c:77:0e:cc:82:d8:c6:2c:1f:5c:12:
        df:9d:fd:1f
-----BEGIN CERTIFICATE-----
MIIDzTCCArWgAwIBAgIBAzANBgkqhkiG9w0BAQsFADBJMRwwGgYDVQQKDBNGcmVp
ZnVuayBNw4PCvG5jaGVuMSkwJwYDVQQDDCBGcmVpZnVuayBNw4PCvG5jaGVuIGV0
Y2QgQ0EgUm9vdDAgFw03MDAxMDEwMDAwMDBaGA85OTk5MTIzMTIzNTk1OVowUTEc
MBoGA1UECgwTRnJlaWZ1bmsgTcODwrxuY2hlbjExMC8GA1UEAwwoRnJlaWZ1bmsg
TcODwrxuY2hlbiBwYXJrZXItdm0wMSAoY2xpZW50KTCCASIwDQYJKoZIhvcNAQEB
BQADggEPADCCAQoCggEBAKk0tp2Hbf1rZp+CTpVfLZKn7mAtgT3DmXQEGCda3vR6
AiEPW3+VA+2r+XyWyFyBGFvBhlPCXb27w7wgIf6iWfr9QU7i1JHqpVNPxn5gT4sj
QsQDvcYLra5Vi70OYF0tjghpao2fp/T/J9UUzaL//dJPzedPo2gu+DvERqwoozaz
PkC8kC5aX59Un8RKM2diUBBL6kNrdUk12HSHms7eCCp6imbA6FtJK8CpPxH1Zy4y
h50/nvpByS3BMm8Pw4WtQeDAjX+3UWZbIHh0qEd69yAS+iCBe8iDBRXv/tMpEZbg
rV6oYniqqeTdn7aj0YjWcsRFpsxzOhlcatsoJB8n6gECAwEAAaOBtTCBsjAdBgNV
HQ4EFgQUtbSsZZu3SGbEumrUux+RzUJYyYEwcQYDVR0jBGowaIAU1Bq6f49U5Nhc
pcUzCRUlyGC5FJOhTaRLMEkxHDAaBgNVBAoME0ZyZWlmdW5rIE3Dg8K8bmNoZW4x
KTAnBgNVBAMMIEZyZWlmdW5rIE3Dg8K8bmNoZW4gZXRjZCBDQSBSb290ggEBMAkG
A1UdEwQCMAAwEwYDVR0lBAwwCgYIKwYBBQUHAwIwDQYJKoZIhvcNAQELBQADggEB
AJ8XZcffNuMhvvZISMpgq+WfODo/W0vfK0QA+Ovd4fl+aHwKAkpa8VGzJ+Zw99s9
g0dMjw7iQ8Ei5LSHJlYluyp5VYsmGXLcs8uoz9OcgzqR2Ahf7EYoKTj7YjPHOKTu
GfuBFCrcu4+9eS0LT4GBZkcgvCB3bQYNEL5xVSPYp/0QLmJx6koRDSm7VQvP9ysg
0vxJb5OJJLtU6mL6pB0fWu4ihsEUZzd/NdW89pFAb5O9l2X4rHaLxwhP22Sxrfve
CAicyMgu9hKGW8RwrMaK/4MvHzUhrkDzZGJ9zq5krWI8Q++YSsvdyZ0RWI/NYRw/
ETx8dw7MgtjGLB9cEt+d/R8=
-----END CERTIFICATE-----
