Certificate:
    Data:
        Version: 3 (0x2)
        Serial Number: 2 (0x2)
        Signature Algorithm: sha256WithRSAEncryption
        Issuer: O=Freifunk M\xC3\x83\xC2\xBCnchen, CN=Freifunk M\xC3\x83\xC2\xBCnchen etcd CA Root
        Validity
            Not Before: Jan  1 00:00:00 1970 GMT
            Not After : Dec 31 23:59:59 9999 GMT
        Subject: O=Freifunk M\xC3\x83\xC2\xBCnchen, CN=Freifunk M\xC3\x83\xC2\xBCnchen parker-vm01 (server)
        Subject Public Key Info:
            Public Key Algorithm: rsaEncryption
                Public-Key: (2048 bit)
                Modulus:
                    00:e4:33:ea:88:a7:1b:04:de:ef:92:d5:3c:20:69:
                    72:6a:23:ff:4b:25:e3:72:10:b2:40:ba:58:37:9c:
                    7e:22:82:52:79:2b:1b:a3:52:fb:71:51:48:0c:b6:
                    be:5d:fd:b4:ab:25:09:81:ca:37:a2:a9:26:11:ac:
                    cf:fc:f4:d7:34:41:52:04:f8:fb:4a:83:7a:8b:68:
                    b8:73:35:e6:0e:3d:72:9c:9d:8e:7a:c7:c0:1e:dd:
                    25:e2:37:81:7d:1c:09:39:da:00:4a:ab:4e:b2:ab:
                    db:ca:60:73:5a:9c:d5:54:77:20:af:72:44:f7:88:
                    45:79:94:a9:f7:66:ec:a6:fd:38:33:bd:db:14:d3:
                    cf:37:a8:52:81:8b:6c:3b:8f:bd:fe:ea:96:6c:df:
                    49:a7:ab:0c:4f:d5:15:11:da:e3:fa:a9:f9:21:6f:
                    e5:d1:6e:e6:dd:70:6e:2a:e9:39:79:39:d7:75:90:
                    30:45:c0:71:e2:92:b5:bc:c9:b9:9a:bf:61:f8:f6:
                    57:cc:03:21:14:68:8d:29:52:73:9a:b8:ed:2a:c9:
                    8c:73:73:e1:49:54:f0:e4:67:48:8a:64:09:bd:f9:
                    6c:22:9c:70:0e:b8:c4:ad:03:ee:99:04:93:05:a4:
                    d7:68:03:bf:e2:a1:ec:6b:e9:de:8c:09:bb:a4:d3:
                    88:d9
                Exponent: 65537 (0x10001)
        X509v3 extensions:
            X509v3 Subject Key Identifier: 
                55:7B:2C:10:4B:60:1E:8E:56:28:90:CD:D4:B6:0C:4D:CB:17:FF:93
            X509v3 Authority Key Identifier: 
                keyid:48:57:9D:85:38:DF:0F:D8:89:66:84:5B:B6:02:00:D9:7B:8C:E6:C0
                DirName:/O=Freifunk M\xC3\x83\xC2\xBCnchen/CN=Freifunk M\xC3\x83\xC2\xBCnchen etcd CA Root
                serial:01
            X509v3 Basic Constraints: 
                CA:FALSE
            X509v3 Extended Key Usage: 
                TLS Web Server Authentication, TLS Web Client Authentication
            X509v3 Subject Alternative Name: 
                IP Address:10.0.0.1
    Signature Algorithm: sha256WithRSAEncryption
    Signature Value:
        84:00:4f:60:78:d8:92:38:a9:3f:36:33:ac:a1:76:14:12:17:
        5d:af:54:f4:b2:30:2c:3d:5f:3a:bf:c5:27:a0:cc:1e:9a:fd:
        89:4b:e0:e3:d2:33:6b:90:7f:66:fa:d9:1d:cb:54:bc:7a:6e:
        f4:8c:4d:10:4b:3b:84:22:34:81:42:db:ab:ab:e0:19:36:35:
        9c:98:15:82:af:e1:95:14:08:b0:bd:d2:95:4a:73:89:b2:75:
        31:c6:44:58:17:24:fe:e0:e0:42:de:b5:d0:65:3c:6c:69:98:
        59:e6:d5:e6:c5:38:1b:69:07:74:d2:1e:f3:99:98:0b:6b:ed:
        fc:3e:44:52:ab:d6:11:96:31:ee:38:a8:32:3c:2c:55:62:95:
        50:d4:83:cd:0d:e7:11:9b:6b:20:12:8c:52:dd:31:fc:29:d2:
        e7:90:0d:82:f7:1b:1e:d2:29:c5:83:62:56:5d:53:c7:fa:54:
        47:ff:c4:f1:85:46:a4:63:14:59:ae:23:74:b1:3f:3c:2b:87:
        72:6c:f7:bf:66:a5:37:29:81:e9:6e:1e:66:a9:77:0e:c8:04:
        c9:ee:81:f0:1a:60:5e:99:50:4e:c0:b9:28:bb:f5:96:bc:fc:
        16:6e:02:35:48:71:ee:6f:f0:42:0d:a5:67:2d:be:e2:f3:50:
        0e:0c:7f:b0
-----BEGIN CERTIFICATE-----
MIID6DCCAtCgAwIBAgIBAjANBgkqhkiG9w0BAQsFADBJMRwwGgYDVQQKDBNGcmVp
ZnVuayBNw4PCvG5jaGVuMSkwJwYDVQQDDCBGcmVpZnVuayBNw4PCvG5jaGVuIGV0
Y2QgQ0EgUm9vdDAgFw03MDAxMDEwMDAwMDBaGA85OTk5MTIzMTIzNTk1OVowUTEc
MBoGA1UECgwTRnJlaWZ1bmsgTcODwrxuY2hlbjExMC8GA1UEAwwoRnJlaWZ1bmsg
TcODwrxuY2hlbiBwYXJrZXItdm0wMSAoc2VydmVyKTCCASIwDQYJKoZIhvcNAQEB
BQADggEPADCCAQoCggEBAOQz6oinGwTe75LVPCBpcmoj/0sl43IQskC6WDecfiKC
UnkrG6NS+3FRSAy2vl39tKslCYHKN6KpJhGsz/z01zRBUgT4+0qDeotouHM15g49
cpydjnrHwB7dJeI3gX0cCTnaAEqrTrKr28pgc1qc1VR3IK9yRPeIRXmUqfdm7Kb9
ODO92xTTzzeoUoGLbDuPvf7qlmzfSaerDE/VFRHa4/qp+SFv5dFu5t1wbirpOXk5
13WQMEXAceKStbzJuZq/Yfj2V8wDIRRojSlSc5q47SrJjHNz4UlU8ORnSIpkCb35
bCKccA64xK0D7pkEkwWk12gDv+Kh7Gvp3owJu6TTiNkCAwEAAaOB0DCBzTAdBgNV
HQ4EFgQUVXssEEtgHo5WKJDN1LYMTcsX/5MwcQYDVR0jBGowaIAUSFedhTjfD9iJ
ZoRbtgIA2XuM5sChTaRLMEkxHDAaBgNVBAoME0ZyZWlmdW5rIE3Dg8K8bmNoZW4x
KTAnBgNVBAMMIEZyZWlmdW5rIE3Dg8K8bmNoZW4gZXRjZCBDQSBSb290ggEBMAkG
A1UdEwQCMAAwHQYDVR0lBBYwFAYIKwYBBQUHAwEGCCsGAQUFBwMCMA8GA1UdEQQI
MAaHBAoAAAEwDQYJKoZIhvcNAQELBQADggEBAIQAT2B42JI4qT82M6yhdhQSF12v
VPSyMCw9Xzq/xSegzB6a/YlL4OPSM2uQf2b62R3LVLx6bvSMTRBLO4QiNIFC26ur
4Bk2NZyYFYKv4ZUUCLC90pVKc4mydTHGRFgXJP7g4ELetdBlPGxpmFnm1ebFOBtp
B3TSHvOZmAtr7fw+RFKr1hGWMe44qDI8LFVilVDUg80N5xGbayASjFLdMfwp0ueQ
DYL3Gx7SKcWDYlZdU8f6VEf/xPGFRqRjFFmuI3SxPzwrh3Js979mpTcpgeluHmap
dw7IBMnugfAaYF6ZUE7AuSi79Za8/BZuAjVIce5v8EINpWctvuLzUA4Mf7A=
-----END CERTIFICATE-----
