Certificate:
    Data:
        Version: 3 (0x2)
        Serial Number: 3 (0x3)
        Signature Algorithm: sha256WithRSAEncryption
        Issuer: O=Freifunk M\xC3\x83\xC2\xBCnchen, CN=Freifunk M\xC3\x83\xC2\xBCnchen etcd CA Root
        Validity
            Not Before: Jan  1 00:00:00 1970 GMT
            Not After : Dec 31 23:59:59 9999 GMT
        Subject: O=Freifunk M\xC3\x83\xC2\xBCnchen, CN=Freifunk M\xC3\x83\xC2\xBCnchen parker-vm01 (client)
        Subject Public Key Info:
            Public Key Algorithm: rsaEncryption
                Public-Key: (2048 bit)
                Modulus:
                    00:a6:37:3c:35:da:34:db:09:8d:40:d0:8e:7f:ea:
                    e8:89:6f:4b:58:1d:31:0b:7c:59:2d:6a:ee:bd:b8:
                    5a:b6:bc:b1:5e:ac:83:d3:bf:e3:67:f8:89:90:ee:
                    3a:25:38:4f:75:73:a8:c5:63:0e:af:57:a1:60:6f:
                    bd:c4:24:f6:c4:8a:90:ce:a7:c8:90:e6:d9:10:c0:
                    5d:2e:c4:68:ae:63:37:8d:93:f1:f7:e0:9d:c4:19:
                    42:f0:95:ec:e4:50:76:34:30:72:5d:5e:d7:38:20:
                    3a:e0:be:6e:5f:a7:87:58:65:e0:8d:b6:ff:c6:8b:
                    05:36:0a:2e:02:26:7a:59:71:a6:f0:92:d3:bb:30:
                    b1:bb:fd:ba:20:c3:5f:88:12:0e:9f:60:fa:a5:4a:
                    27:e1:d0:68:1b:dd:6e:5d:ee:41:6c:18:99:3b:2f:
                    ac:61:c0:56:19:ee:88:ce:af:6a:99:d6:49:48:aa:
                    5a:32:50:5d:6f:ac:b4:73:35:0f:4f:1f:1c:31:cf:
                    d7:35:8a:ab:1d:67:48:66:cf:12:b5:e1:03:da:34:
                    23:28:05:24:fb:95:83:f1:6c:43:3d:20:17:3f:b9:
                    0c:6b:ee:df:d2:a6:ae:30:59:0b:88:46:df:0f:17:
                    07:2d:6a:ad:cf:1b:a6:15:f2:82:17:cc:d2:f7:66:
                    1b:41
                Exponent: 65537 (0x10001)
        X509v3 extensions:
            X509v3 Subject Key Identifier: 
                32:34:96:5E:F8:D7:5A:55:12:31:2B:12:6F:58:66:1F:C1:68:0E:15
            X509v3 Authority Key Identifier: 
                keyid:48:57:9D:85:38:DF:0F:D8:89:66:84:5B:B6:02:00:D9:7B:8C:E6:C0
                DirName:/O=Freifunk M\xC3\x83\xC2\xBCnchen/CN=Freifunk M\xC3\x83\xC2\xBCnchen etcd CA Root
                serial:01
            X509v3 Basic Constraints: 
                CA:FALSE
            X509v3 Extended Key Usage: 
                TLS Web Client Authentication
    Signature Algorithm: sha256WithRSAEncryption
    Signature Value:
        18:69:b8:92:c7:2a:06:d0:17:ea:d6:6d:cb:ba:40:69:54:41:
        0d:06:53:8d:aa:dc:0f:1b:e7:d9:6b:4f:42:3b:0e:10:00:84:
        9d:fb:0b:aa:4b:15:32:59:8e:38:88:ac:b6:9e:c2:e5:80:b1:
        ba:a0:a1:4a:96:77:0d:9a:8d:d2:ac:e5:6d:16:c6:90:1a:c9:
        3f:85:f4:8a:df:55:71:ff:8c:e3:04:0f:3b:a7:c5:3e:7c:83:
        ea:82:5e:5e:6d:eb:ca:f5:72:f1:5e:c9:91:ca:39:c7:75:d5:
        5c:a0:0c:f7:29:58:dd:26:2d:3c:e4:d1:84:d6:50:36:2e:9c:
        b9:b8:a6:b8:c5:f2:34:56:7a:22:e8:4a:30:05:70:63:a3:1a:
        f8:cf:80:91:7f:2b:5c:25:a6:b8:8c:0b:65:f8:0a:f3:b5:3f:
        c4:bc:db:a5:c8:aa:10:b6:ae:87:26:d4:a5:db:32:a5:10:03:
        13:62:19:ae:5f:1b:83:af:a7:89:0b:71:6b:1e:c8:6c:53:9e:
        af:4f:75:d4:82:23:a5:61:cc:e0:3a:2c:3d:46:31:32:46:b9:
        9c:45:6c:12:3e:fd:80:0f:bc:96:d7:88:61:fe:59:08:db:e1:
        ee:b8:53:ca:c1:16:14:7b:8a:a7:2c:5e:a5:c0:3c:e5:1d:cf:
        c8:c5:f0:29
-----BEGIN CERTIFICATE-----
MIIDzTCCArWgAwIBAgIBAzANBgkqhkiG9w0BAQsFADBJMRwwGgYDVQQKDBNGcmVp
ZnVuayBNw4PCvG5jaGVuMSkwJwYDVQQDDCBGcmVpZnVuayBNw4PCvG5jaGVuIGV0
Y2QgQ0EgUm9vdDAgFw03MDAxMDEwMDAwMDBaGA85OTk5MTIzMTIzNTk1OVowUTEc
MBoGA1UECgwTRnJlaWZ1bmsgTcODwrxuY2hlbjExMC8GA1UEAwwoRnJlaWZ1bmsg
TcODwrxuY2hlbiBwYXJrZXItdm0wMSAoY2xpZW50KTCCASIwDQYJKoZIhvcNAQEB
BQADggEPADCCAQoCggEBAKY3PDXaNNsJjUDQjn/q6IlvS1gdMQt8WS1q7r24Wra8
sV6sg9O/42f4iZDuOiU4T3VzqMVjDq9XoWBvvcQk9sSKkM6nyJDm2RDAXS7EaK5j
N42T8ffgncQZQvCV7ORQdjQwcl1e1zggOuC+bl+nh1hl4I22/8aLBTYKLgImellx
pvCS07swsbv9uiDDX4gSDp9g+qVKJ+HQaBvdbl3uQWwYmTsvrGHAVhnuiM6vapnW
SUiqWjJQXW+stHM1D08fHDHP1zWKqx1nSGbPErXhA9o0IygFJPuVg/FsQz0gFz+5
DGvu39KmrjBZC4hG3w8XBy1qrc8bphXyghfM0vdmG0ECAwEAAaOBtTCBsjAdBgNV
HQ4EFgQUMjSWXvjXWlUSMSsSb1hmH8FoDhUwcQYDVR0jBGowaIAUSFedhTjfD9iJ
ZoRbtgIA2XuM5sChTaRLMEkxHDAaBgNVBAoME0ZyZWlmdW5rIE3Dg8K8bmNoZW4x
KTAnBgNVBAMMIEZyZWlmdW5rIE3Dg8K8bmNoZW4gZXRjZCBDQSBSb290ggEBMAkG
A1UdEwQCMAAwEwYDVR0lBAwwCgYIKwYBBQUHAwIwDQYJKoZIhvcNAQELBQADggEB
ABhpuJLHKgbQF+rWbcu6QGlUQQ0GU42q3A8b59lrT0I7DhAAhJ37C6pLFTJZjjiI
rLaewuWAsbqgoUqWdw2ajdKs5W0WxpAayT+F9IrfVXH/jOMEDzunxT58g+qCXl5t
68r1cvFeyZHKOcd11VygDPcpWN0mLTzk0YTWUDYunLm4prjF8jRWeiLoSjAFcGOj
GvjPgJF/K1wlpriMC2X4CvO1P8S826XIqhC2rocm1KXbMqUQAxNiGa5fG4Ovp4kL
cWseyGxTnq9PddSCI6VhzOA6LD1GMTJGuZxFbBI+/YAPvJbXiGH+WQjb4e64U8rB
FhR7iqcsXqXAPOUdz8jF8Ck=
-----END CERTIFICATE-----
