Certificate:
    Data:
        Version: 3 (0x2)
        Serial Number: 2 (0x2)
        Signature Algorithm: sha256WithRSAEncryption
        Issuer: O=Freifunk M\xC3\x83\xC2\xBCnchen, CN=Freifunk M\xC3\x83\xC2\xBCnchen etcd CA Root
        Validity
            Not Before: Jan  1 00:00:00 1970 GMT
            Not After : Dec 31 23:59:59 9999 GMT
        Subject: O=Freifunk M\xC3\x83\xC2\xBCnchen, CN=Freifunk M\xC3\x83\xC2\xBCnchen parker-vm01 (server)
        Subject Public Key Info:
            Public Key Algorithm: rsaEncryption
                Public-Key: (2048 bit)
                Modulus:
                    00:e1:2c:a7:20:68:74:a9:01:c6:a6:be:ab:eb:18:
                    46:fb:14:3c:66:2b:d3:b7:71:25:2d:de:91:17:6e:
                    53:47:d1:ed:99:7b:5f:7f:7d:7c:5b:8c:ff:36:69:
                    1f:f8:b6:84:3c:bb:3a:a0:fb:8f:37:bb:37:f3:22:
                    1e:de:57:25:e2:dc:87:6e:2d:20:6b:56:93:a7:f5:
                    ad:82:51:47:71:83:bb:01:10:94:c4:36:05:d0:74:
                    2e:23:70:a9:4f:b0:bd:10:45:62:67:7b:08:a1:a0:
                    07:be:85:60:a5:02:f5:9a:cd:b3:44:30:83:ec:4e:
                    27:d8:d2:99:f4:93:51:04:73:2c:2f:f2:ac:ec:c9:
                    b5:ea:e6:d5:b5:4e:37:00:d8:75:58:8a:87:fe:6b:
                    33:4d:c1:a4:82:6d:58:13:9d:16:12:ab:07:78:18:
                    0d:7d:ad:63:25:99:58:8b:3d:6c:d0:24:d1:63:22:
                    e7:b0:5e:9a:c8:e4:e6:8c:da:c4:52:c3:ec:81:fa:
                    6d:5e:89:de:49:16:8b:b0:17:a0:24:c1:21:cb:17:
                    b6:6e:61:1f:5a:0b:a6:ff:c2:ae:0b:7f:fc:4d:7a:
                    ab:ef:a4:10:a8:7a:de:ad:e8:67:55:74:92:9c:c0:
                    d9:3a:1d:6a:90:8d:64:b5:5b:c5:28:f0:f3:ce:53:
                    9d:9b
                Exponent: 65537 (0x10001)
        X509v3 extensions:
            X509v3 Subject Key Identifier: 
                91:0A:29:28:DE:E2:63:16:0B:5E:14:7A:2E:AD:A1:C0:54:4A:FB:DA
            X509v3 Authority Key Identifier: 
                keyid:EE:31:B2:28:8E:19:6A:7B:51:C3:E0:2D:15:11:DB:62:B2:BD:13:80
                DirName:/O=Freifunk M\xC3\x83\xC2\xBCnchen/CN=Freifunk M\xC3\x83\xC2\xBCnchen etcd CA Root
                serial:01
            X509v3 Basic Constraints: 
                CA:FALSE
            X509v3 Extended Key Usage: 
                TLS Web Server Authentication, TLS Web Client Authentication
            X509v3 Subject Alternative Name: 
                IP Address:172.16.1.1
    Signature Algorithm: sha256WithRSAEncryption
    Signature Value:
        8c:c3:1c:94:d5:20:93:7f:2f:0f:3b:1c:99:16:f9:3d:b3:99:
        ac:5c:f2:e0:5b:fe:51:d7:f0:59:f3:9f:9e:d3:0e:97:2d:cd:
        eb:16:31:85:f5:78:83:62:64:30:7e:ee:2f:89:9d:8f:26:ab:
        42:13:58:b1:cb:04:16:a3:f5:f6:b1:52:e4:68:da:f5:e9:8e:
        63:3b:5d:a8:95:85:73:9f:f8:44:e0:bb:53:86:cc:d7:fa:91:
        ea:62:aa:a6:02:80:42:d4:84:54:43:87:6e:74:67:21:e6:80:
        a5:27:c8:86:82:58:86:7f:dd:e9:23:3e:f2:31:bb:33:e9:17:
        f9:81:ae:a8:de:9c:cc:a5:ed:5e:b8:3e:70:91:3e:9d:03:d6:
        c5:32:cc:09:de:b5:09:e9:c5:cc:a0:19:f2:3a:c6:32:3c:9b:
        f6:21:e2:17:4d:cc:a6:1f:39:c9:9d:c6:44:4c:d1:fb:63:31:
        b7:0c:2e:ac:9a:f6:e0:e4:73:0c:c2:4a:39:5b:9a:56:3f:70:
        cb:b1:a3:60:aa:b8:ed:65:3b:41:80:da:ad:24:15:4c:bf:71:
        0b:96:6f:d1:14:99:a1:05:55:06:80:76:67:67:7e:ce:d0:9e:
        99:29:01:8d:2d:91:a6:17:ea:cf:b9:46:19:06:c3:fa:05:aa:
        81:f8:dc:85
-----BEGIN CERTIFICATE-----
MIID6DCCAtCgAwIBAgIBAjANBgkqhkiG9w0BAQsFADBJMRwwGgYDVQQKDBNGcmVp
ZnVuayBNw4PCvG5jaGVuMSkwJwYDVQQDDCBGcmVpZnVuayBNw4PCvG5jaGVuIGV0
Y2QgQ0EgUm9vdDAgFw03MDAxMDEwMDAwMDBaGA85OTk5MTIzMTIzNTk1OVowUTEc
MBoGA1UECgwTRnJlaWZ1bmsgTcODwrxuY2hlbjExMC8GA1UEAwwoRnJlaWZ1bmsg
TcODwrxuY2hlbiBwYXJrZXItdm0wMSAoc2VydmVyKTCCASIwDQYJKoZIhvcNAQEB
BQADggEPADCCAQoCggEBAOEspyBodKkBxqa+q+sYRvsUPGYr07dxJS3ekRduU0fR
7Zl7X399fFuM/zZpH/i2hDy7OqD7jze7N/MiHt5XJeLch24tIGtWk6f1rYJRR3GD
uwEQlMQ2BdB0LiNwqU+wvRBFYmd7CKGgB76FYKUC9ZrNs0Qwg+xOJ9jSmfSTUQRz
LC/yrOzJterm1bVONwDYdViKh/5rM03BpIJtWBOdFhKrB3gYDX2tYyWZWIs9bNAk
0WMi57Bemsjk5ozaxFLD7IH6bV6J3kkWi7AXoCTBIcsXtm5hH1oLpv/Crgt//E16
q++kEKh63q3oZ1V0kpzA2TodapCNZLVbxSjw885TnZsCAwEAAaOB0DCBzTAdBgNV
HQ4EFgQUkQopKN7iYxYLXhR6Lq2hwFRK+9owcQYDVR0jBGowaIAU7jGyKI4ZantR
w+AtFRHbYrK9E4ChTaRLMEkxHDAaBgNVBAoME0ZyZWlmdW5rIE3Dg8K8bmNoZW4x
KTAnBgNVBAMMIEZyZWlmdW5rIE3Dg8K8bmNoZW4gZXRjZCBDQSBSb290ggEBMAkG
A1UdEwQCMAAwHQYDVR0lBBYwFAYIKwYBBQUHAwEGCCsGAQUFBwMCMA8GA1UdEQQI
MAaHBKwQAQEwDQYJKoZIhvcNAQELBQADggEBAIzDHJTVIJN/Lw87HJkW+T2zmaxc
8uBb/lHX8Fnzn57TDpctzesWMYX1eINiZDB+7i+JnY8mq0ITWLHLBBaj9faxUuRo
2vXpjmM7XaiVhXOf+ETgu1OGzNf6kepiqqYCgELUhFRDh250ZyHmgKUnyIaCWIZ/
3ekjPvIxuzPpF/mBrqjenMyl7V64PnCRPp0D1sUyzAnetQnpxcygGfI6xjI8m/Yh
4hdNzKYfOcmdxkRM0ftjMbcMLqya9uDkcwzCSjlbmlY/cMuxo2CquO1lO0GA2q0k
FUy/cQuWb9EUmaEFVQaAdmdnfs7QnpkpAY0tkaYX6s+5RhkGw/oFqoH43IU=
-----END CERTIFICATE-----
