Certificate:
    Data:
        Version: 3 (0x2)
        Serial Number: 3 (0x3)
        Signature Algorithm: sha256WithRSAEncryption
        Issuer: O=Freifunk M\xC3\x83\xC2\xBCnchen, CN=Freifunk M\xC3\x83\xC2\xBCnchen etcd CA Root
        Validity
            Not Before: Jan  1 00:00:00 1970 GMT
            Not After : Dec 31 23:59:59 9999 GMT
        Subject: O=Freifunk M\xC3\x83\xC2\xBCnchen, CN=Freifunk M\xC3\x83\xC2\xBCnchen parker-vm01 (client)
        Subject Public Key Info:
            Public Key Algorithm: rsaEncryption
                Public-Key: (2048 bit)
                Modulus:
                    00:b3:01:79:70:a6:c4:79:4e:4a:26:cd:13:8d:f3:
                    ae:f4:d5:ad:28:02:0c:73:e3:58:05:23:ae:5f:d1:
                    c4:72:fa:59:8b:8b:a9:e6:ae:1b:b6:6e:66:6a:e0:
                    5f:d0:0c:a4:6d:12:74:e0:b7:dd:9b:d0:33:e7:4a:
                    c3:fd:13:82:02:e3:ac:ab:f3:08:36:8d:a8:40:3b:
                    d5:6c:51:b2:f3:6f:d4:36:d3:2b:a0:08:e6:d1:39:
                    ba:f3:9e:1d:2f:30:fc:a1:73:13:17:b8:97:6e:bc:
                    eb:47:62:72:f9:9b:04:87:c1:2a:39:39:d3:0b:7f:
                    d0:fb:7e:c5:86:8a:6d:4b:1b:29:46:22:69:9b:79:
                    0f:ae:95:5e:da:fc:bc:69:13:9c:5d:92:f2:04:09:
                    15:ea:1e:80:60:e0:89:2b:5b:0f:b8:5b:d2:37:f3:
                    ef:0a:d5:fb:35:8d:22:cf:50:bc:d9:4f:3b:09:5c:
                    58:69:c1:19:9d:53:ce:84:0d:9d:54:90:2e:b8:58:
                    c0:11:ad:e8:5d:40:06:46:07:be:54:ca:0c:fc:ff:
                    53:30:4a:47:2f:a1:fb:07:53:6b:01:7a:83:2a:70:
                    1d:6d:81:22:00:f5:30:6b:91:f8:14:d4:ec:7c:90:
                    6a:c4:6a:79:0e:46:ce:83:4e:7e:64:0a:45:bc:1b:
                    73:1d
                Exponent: 65537 (0x10001)
        X509v3 extensions:
            X509v3 Subject Key Identifier: 
                72:0C:F0:07:CC:2B:BA:95:7C:6C:53:D1:CE:ED:B1:20:ED:80:FC:64
            X509v3 Authority Key Identifier: 
                keyid:9D:5D:5E:86:06:F1:CD:F0:D8:6F:33:F9:D3:A3:1C:24:17:76:E1:AE
                DirName:/O=Freifunk M\xC3\x83\xC2\xBCnchen/CN=Freifunk M\xC3\x83\xC2\xBCnchen etcd CA Root
                serial:01
            X509v3 Basic Constraints: 
                CA:FALSE
            X509v3 Extended Key Usage: 
                TLS Web Client Authentication
    Signature Algorithm: sha256WithRSAEncryption
    Signature Value:
        00:38:39:fc:46:93:f2:16:39:38:f0:3f:aa:c5:f8:82:67:46:
        39:0c:5c:7b:7c:93:12:b8:0f:ad:bc:39:6b:d7:bd:f3:18:1c:
        e4:b0:5c:d9:40:88:d1:37:2f:73:2b:0a:0d:bf:18:bf:43:e3:
        35:b5:b7:79:2d:9c:1a:d0:8a:80:f3:05:70:a4:eb:53:74:97:
        fd:5e:8f:fa:c3:47:70:b6:86:1f:c1:27:0b:23:3b:10:fd:b6:
        48:29:87:ef:34:70:80:34:1c:3d:c1:48:c0:02:f1:63:a6:0c:
        bb:0c:5a:57:50:82:24:7f:08:23:6c:a2:68:c3:e7:7d:d7:e8:
        37:08:e1:0e:fd:76:4c:bf:11:fc:18:4e:b2:d4:6d:2d:f8:73:
        44:34:5c:6c:79:7d:1e:a4:e6:ff:50:0c:6b:9e:b5:e2:dd:3b:
        47:ee:c2:fe:e7:40:b7:09:37:16:f8:53:11:29:a9:1b:0f:e7:
        a4:c4:a5:04:9d:28:60:c7:aa:7e:46:7c:ba:37:05:18:ef:d4:
        06:63:e2:49:f0:09:94:55:8b:68:f6:7e:6e:e9:1b:c3:52:a0:
        9f:ba:ca:d0:d9:0a:3d:f3:a8:ad:9d:e8:82:22:a2:2c:90:a4:
        fa:19:5c:50:ba:8a:2b:d4:89:91:de:51:41:e9:5c:d6:96:3f:
        ed:49:82:4d
-----BEGIN CERTIFICATE-----
MIIDzTCCArWgAwIBAgIBAzANBgkqhkiG9w0BAQsFADBJMRwwGgYDVQQKDBNGcmVp
ZnVuayBNw4PCvG5jaGVuMSkwJwYDVQQDDCBGcmVpZnVuayBNw4PCvG5jaGVuIGV0
Y2QgQ0EgUm9vdDAgFw03MDAxMDEwMDAwMDBaGA85OTk5MTIzMTIzNTk1OVowUTEc
MBoGA1UECgwTRnJlaWZ1bmsgTcODwrxuY2hlbjExMC8GA1UEAwwoRnJlaWZ1bmsg
TcODwrxuY2hlbiBwYXJrZXItdm0wMSAoY2xpZW50KTCCASIwDQYJKoZIhvcNAQEB
BQADggEPADCCAQoCggEBALMBeXCmxHlOSibNE43zrvTVrSgCDHPjWAUjrl/RxHL6
WYuLqeauG7ZuZmrgX9AMpG0SdOC33ZvQM+dKw/0TggLjrKvzCDaNqEA71WxRsvNv
1DbTK6AI5tE5uvOeHS8w/KFzExe4l26860dicvmbBIfBKjk50wt/0Pt+xYaKbUsb
KUYiaZt5D66VXtr8vGkTnF2S8gQJFeoegGDgiStbD7hb0jfz7wrV+zWNIs9QvNlP
OwlcWGnBGZ1TzoQNnVSQLrhYwBGt6F1ABkYHvlTKDPz/UzBKRy+h+wdTawF6gypw
HW2BIgD1MGuR+BTU7HyQasRqeQ5GzoNOfmQKRbwbcx0CAwEAAaOBtTCBsjAdBgNV
HQ4EFgQUcgzwB8wrupV8bFPRzu2xIO2A/GQwcQYDVR0jBGowaIAUnV1ehgbxzfDY
bzP506McJBd24a6hTaRLMEkxHDAaBgNVBAoME0ZyZWlmdW5rIE3Dg8K8bmNoZW4x
KTAnBgNVBAMMIEZyZWlmdW5rIE3Dg8K8bmNoZW4gZXRjZCBDQSBSb290ggEBMAkG
A1UdEwQCMAAwEwYDVR0lBAwwCgYIKwYBBQUHAwIwDQYJKoZIhvcNAQELBQADggEB
AAA4OfxGk/IWOTjwP6rF+IJnRjkMXHt8kxK4D628OWvXvfMYHOSwXNlAiNE3L3Mr
Cg2/GL9D4zW1t3ktnBrQioDzBXCk61N0l/1ej/rDR3C2hh/BJwsjOxD9tkgph+80
cIA0HD3BSMAC8WOmDLsMWldQgiR/CCNsomjD533X6DcI4Q79dky/EfwYTrLUbS34
c0Q0XGx5fR6k5v9QDGueteLdO0fuwv7nQLcJNxb4UxEpqRsP56TEpQSdKGDHqn5G
fLo3BRjv1AZj4knwCZRVi2j2fm7pG8NSoJ+6ytDZCj3zqK2d6IIioiyQpPoZXFC6
iivUiZHeUUHpXNaWP+1Jgk0=
-----END CERTIFICATE-----
