Certificate:
    Data:
        Version: 3 (0x2)
        Serial Number: 3 (0x3)
        Signature Algorithm: sha256WithRSAEncryption
        Issuer: O=Freifunk M\xC3\x83\xC2\xBCnchen, CN=Freifunk M\xC3\x83\xC2\xBCnchen etcd CA Root
        Validity
            Not Before: Jan  1 00:00:00 1970 GMT
            Not After : Dec 31 23:59:59 9999 GMT
        Subject: O=Freifunk M\xC3\x83\xC2\xBCnchen, CN=Freifunk M\xC3\x83\xC2\xBCnchen parker-vm01 (client)
        Subject Public Key Info:
            Public Key Algorithm: rsaEncryption
                Public-Key: (2048 bit)
                Modulus:
                    00:bb:76:23:51:39:f1:db:cc:4a:4b:c0:65:14:a5:
                    01:73:b1:5f:76:cd:18:53:ee:3f:1e:5a:c9:3b:cd:
                    7d:a8:cc:64:dd:df:20:54:0c:0d:ac:f6:1e:c5:5e:
                    9d:4b:70:ef:9c:1c:d0:d6:82:4f:0c:76:fb:95:71:
                    d9:a0:a9:67:e6:ce:b4:bb:88:0f:91:54:68:0d:96:
                    d0:7d:8c:df:ae:e5:e7:45:99:bf:3e:97:3a:b5:c1:
                    de:10:06:71:d8:37:5c:8d:64:72:4e:5b:17:d6:cb:
                    34:86:b3:b1:b7:19:04:c4:50:7e:95:c9:05:e7:87:
                    e4:34:4a:8b:85:ca:50:f1:18:af:6b:f8:72:5c:31:
                    7b:b1:df:97:0d:32:36:b1:bf:86:fc:19:dc:2e:dc:
                    5d:54:04:ae:70:df:c9:69:23:d9:bb:a3:2a:4d:7e:
                    45:4e:31:82:7c:b8:e8:86:1b:c7:2e:31:fc:51:4d:
                    79:ab:a5:4c:61:62:c3:16:9c:42:41:53:5a:0e:2e:
                    aa:be:1f:fb:ce:d3:05:ce:a1:a7:d4:16:8e:39:0c:
                    db:f4:4f:e7:d2:ee:6f:d5:24:8f:4a:da:c5:e7:f8:
                    77:2b:5b:36:8c:12:44:2f:83:02:30:e3:56:ba:70:
                    64:69:87:fe:7d:2a:4a:d7:5c:db:c5:50:2a:38:cc:
                    76:c1
                Exponent: 65537 (0x10001)
        X509v3 extensions:
            X509v3 Subject Key Identifier: 
                44:56:1B:1C:7A:3D:11:A5:4F:43:05:D2:5C:F6:8E:04:BF:33:5E:3F
            X509v3 Authority Key Identifier: 
                keyid:EE:31:B2:28:8E:19:6A:7B:51:C3:E0:2D:15:11:DB:62:B2:BD:13:80
                DirName:/O=Freifunk M\xC3\x83\xC2\xBCnchen/CN=Freifunk M\xC3\x83\xC2\xBCnchen etcd CA Root
                serial:01
            X509v3 Basic Constraints: 
                CA:FALSE
            X509v3 Extended Key Usage: 
                TLS Web Client Authentication
    Signature Algorithm: sha256WithRSAEncryption
    Signature Value:
        42:86:1f:a6:00:b8:88:20:26:aa:76:db:1d:36:b6:a3:19:3e:
        49:35:6f:b9:b5:3a:37:e4:72:05:ef:58:de:f0:b3:3b:79:74:
        e9:0a:82:f3:9a:7e:c2:e2:e3:d2:7c:f3:2c:fe:e7:a0:a0:b9:
        66:1a:36:87:d5:16:ce:26:bd:59:b5:76:f0:62:7f:2a:c7:6a:
        ff:28:c4:0d:09:42:73:31:d9:f3:7b:ac:66:f2:1b:89:fc:7a:
        a9:1e:1a:32:e7:ad:ee:68:d6:fd:f7:1a:54:75:8b:a0:55:c8:
        0f:6e:34:12:68:96:24:b9:45:0c:c7:66:aa:7e:24:fe:34:aa:
        ee:b5:b0:0e:bf:d1:2e:02:29:cd:d4:a5:ce:40:c7:13:8e:6f:
        0d:e8:de:11:fb:31:f2:3e:ae:52:17:15:2f:b3:49:07:9c:d3:
        34:66:72:e6:2b:2a:60:bf:e7:a6:08:9e:b7:e7:da:27:31:3a:
        2f:08:00:ec:78:1f:2b:e1:5a:5b:03:eb:e8:7d:3f:a2:3e:41:
        c9:75:54:45:06:25:c6:18:6e:c3:4b:21:c5:84:c8:15:ae:6d:
        cf:63:8b:5d:4c:70:78:37:90:f8:17:6a:e3:5e:e9:2a:8d:18:
        35:57:8c:50:74:df:a0:7e:14:e2:88:6d:9a:d6:73:ec:78:75:
        94:2a:30:12
-----BEGIN CERTIFICATE-----
MIIDzTCCArWgAwIBAgIBAzANBgkqhkiG9w0BAQsFADBJMRwwGgYDVQQKDBNGcmVp
ZnVuayBNw4PCvG5jaGVuMSkwJwYDVQQDDCBGcmVpZnVuayBNw4PCvG5jaGVuIGV0
Y2QgQ0EgUm9vdDAgFw03MDAxMDEwMDAwMDBaGA85OTk5MTIzMTIzNTk1OVowUTEc
MBoGA1UECgwTRnJlaWZ1bmsgTcODwrxuY2hlbjExMC8GA1UEAwwoRnJlaWZ1bmsg
TcODwrxuY2hlbiBwYXJrZXItdm0wMSAoY2xpZW50KTCCASIwDQYJKoZIhvcNAQEB
BQADggEPADCCAQoCggEBALt2I1E58dvMSkvAZRSlAXOxX3bNGFPuPx5ayTvNfajM
ZN3fIFQMDaz2HsVenUtw75wc0NaCTwx2+5Vx2aCpZ+bOtLuID5FUaA2W0H2M367l
50WZvz6XOrXB3hAGcdg3XI1kck5bF9bLNIazsbcZBMRQfpXJBeeH5DRKi4XKUPEY
r2v4clwxe7Hflw0yNrG/hvwZ3C7cXVQErnDfyWkj2bujKk1+RU4xgny46IYbxy4x
/FFNeaulTGFiwxacQkFTWg4uqr4f+87TBc6hp9QWjjkM2/RP59Lub9Ukj0raxef4
dytbNowSRC+DAjDjVrpwZGmH/n0qStdc28VQKjjMdsECAwEAAaOBtTCBsjAdBgNV
HQ4EFgQURFYbHHo9EaVPQwXSXPaOBL8zXj8wcQYDVR0jBGowaIAU7jGyKI4ZantR
w+AtFRHbYrK9E4ChTaRLMEkxHDAaBgNVBAoME0ZyZWlmdW5rIE3Dg8K8bmNoZW4x
KTAnBgNVBAMMIEZyZWlmdW5rIE3Dg8K8bmNoZW4gZXRjZCBDQSBSb290ggEBMAkG
A1UdEwQCMAAwEwYDVR0lBAwwCgYIKwYBBQUHAwIwDQYJKoZIhvcNAQELBQADggEB
AEKGH6YAuIggJqp22x02tqMZPkk1b7m1OjfkcgXvWN7wszt5dOkKgvOafsLi49J8
8yz+56CguWYaNofVFs4mvVm1dvBifyrHav8oxA0JQnMx2fN7rGbyG4n8eqkeGjLn
re5o1v33GlR1i6BVyA9uNBJoliS5RQzHZqp+JP40qu61sA6/0S4CKc3Upc5AxxOO
bw3o3hH7MfI+rlIXFS+zSQec0zRmcuYrKmC/56YInrfn2icxOi8IAOx4HyvhWlsD
6+h9P6I+Qcl1VEUGJcYYbsNLIcWEyBWubc9ji11McHg3kPgXauNe6SqNGDVXjFB0
36B+FOKIbZrWc+x4dZQqMBI=
-----END CERTIFICATE-----
