Certificate:
    Data:
        Version: 3 (0x2)
        Serial Number: 9 (0x9)
    Signature Algorithm: sha256WithRSAEncryption
        Issuer: O=Freifunk Braunschweig, CN=Freifunk Braunschweig etcd CA Root
        Validity
            Not Before: Jan  1 00:00:00 1970 GMT
            Not After : Dec 31 23:59:59 9999 GMT
        Subject: O=Freifunk Braunschweig, CN=Freifunk Braunschweig web (client)
        Subject Public Key Info:
            Public Key Algorithm: rsaEncryption
                Public-Key: (2048 bit)
                Modulus:
                    00:eb:ec:8f:f3:eb:62:e4:19:b9:51:fb:ab:c1:57:
                    eb:aa:b0:4d:cc:9b:77:01:3e:e9:3a:5d:58:b8:05:
                    a1:3a:de:78:40:4d:47:8e:7f:9e:ba:93:26:98:b3:
                    80:7a:38:5c:47:98:ad:ea:77:8d:1e:f3:d8:32:ca:
                    dd:e5:ac:e6:8d:83:76:f3:18:3c:43:1e:51:0d:ff:
                    31:de:b7:64:d7:a9:00:4f:9d:ef:52:54:6c:8d:af:
                    be:c8:0b:d6:92:03:77:ea:a1:70:d2:09:9b:b0:b8:
                    7d:81:85:75:47:09:1a:ed:1a:45:a5:c9:02:ff:b2:
                    25:c3:c6:6e:e4:a0:cf:16:1e:8e:63:8c:8a:01:c9:
                    de:65:3e:7b:f2:15:48:dc:e8:4a:ad:6d:62:c5:f4:
                    d3:5c:0e:4d:5a:1d:76:92:41:b5:00:9b:14:c0:cc:
                    b3:ca:a0:ea:f1:eb:bd:da:c9:0d:12:39:8f:6c:df:
                    c9:92:d8:0d:59:1c:75:2d:09:96:c1:5e:58:8c:d7:
                    a2:e6:5e:e0:13:51:3d:19:cc:db:b1:03:c0:20:f6:
                    31:db:c5:31:55:9c:1d:c1:a1:cc:0a:f7:df:f4:57:
                    7f:e4:95:b7:e9:05:35:e0:71:04:8a:33:f9:32:a5:
                    e4:87:f9:40:07:70:ac:2e:53:4c:a3:5c:f4:00:05:
                    f7:03
                Exponent: 65537 (0x10001)
        X509v3 extensions:
            X509v3 Subject Key Identifier: 
                B8:E7:69:F8:31:AE:AB:11:D9:F2:C7:7F:35:76:3D:4A:58:BB:EF:96
            X509v3 Authority Key Identifier: 
                keyid:77:20:C8:2E:65:6B:15:7B:6F:5A:D8:EC:CC:92:54:D0:41:D6:98:8A
                DirName:/O=Freifunk Braunschweig/CN=Freifunk Braunschweig etcd CA Root
                serial:01

            X509v3 Basic Constraints: 
                CA:FALSE
            X509v3 Extended Key Usage: 
                TLS Web Client Authentication
    Signature Algorithm: sha256WithRSAEncryption
         09:9d:83:6f:c2:9e:bb:4e:ab:e0:72:ce:42:b5:54:59:57:af:
         75:33:41:ce:12:83:89:d2:76:7d:08:5b:31:ca:b8:4a:96:48:
         52:e7:3f:1d:94:48:fb:8b:91:3c:d8:7c:35:6f:a9:5c:4a:81:
         c8:f6:95:c6:bd:1f:4c:cf:c6:6c:7e:d3:38:96:60:17:18:f6:
         d7:57:e5:bb:b7:4a:62:9f:51:4f:f3:9f:66:94:f4:59:d7:07:
         7a:79:5c:56:32:2d:df:ba:85:85:15:c1:03:22:05:e9:ab:cb:
         57:4b:d6:5a:76:0a:78:92:1b:f3:dd:65:db:41:17:45:ed:3c:
         ff:c4:ca:4d:ff:69:71:4c:86:3f:48:c1:a7:9c:b0:74:9b:e8:
         db:e0:12:af:03:cf:8d:dd:2a:c7:b2:c4:44:f1:30:3e:c9:a3:
         16:67:87:60:78:63:a6:5d:57:0d:2f:a5:e6:7c:ca:fe:9a:03:
         8f:37:be:69:d1:bc:e6:10:8c:19:7c:64:30:a3:43:35:be:e3:
         3f:f1:37:3d:3f:47:39:bc:fb:ad:1a:6f:a8:28:81:b0:99:dd:
         b4:3e:6c:dc:a6:4e:bc:51:b4:73:e8:49:5f:6d:87:36:56:59:
         c2:1b:3c:73:b2:8e:43:37:c7:7a:1f:6c:84:55:78:7c:6e:11:
         44:9f:03:e6
-----BEGIN CERTIFICATE-----
MIID0zCCArugAwIBAgIBCTANBgkqhkiG9w0BAQsFADBNMR4wHAYDVQQKDBVGcmVp
ZnVuayBCcmF1bnNjaHdlaWcxKzApBgNVBAMMIkZyZWlmdW5rIEJyYXVuc2Nod2Vp
ZyBldGNkIENBIFJvb3QwIhgPMTk3MDAxMDEwMDAwMDBaGA85OTk5MTIzMTIzNTk1
OVowTTEeMBwGA1UECgwVRnJlaWZ1bmsgQnJhdW5zY2h3ZWlnMSswKQYDVQQDDCJG
cmVpZnVuayBCcmF1bnNjaHdlaWcgd2ViIChjbGllbnQpMIIBIjANBgkqhkiG9w0B
AQEFAAOCAQ8AMIIBCgKCAQEA6+yP8+ti5Bm5UfurwVfrqrBNzJt3AT7pOl1YuAWh
Ot54QE1Hjn+eupMmmLOAejhcR5it6neNHvPYMsrd5azmjYN28xg8Qx5RDf8x3rdk
16kAT53vUlRsja++yAvWkgN36qFw0gmbsLh9gYV1Rwka7RpFpckC/7Ilw8Zu5KDP
Fh6OY4yKAcneZT578hVI3OhKrW1ixfTTXA5NWh12kkG1AJsUwMyzyqDq8eu92skN
EjmPbN/JktgNWRx1LQmWwV5YjNei5l7gE1E9GczbsQPAIPYx28UxVZwdwaHMCvff
9Fd/5JW36QU14HEEijP5MqXkh/lAB3CsLlNMo1z0AAX3AwIDAQABo4G5MIG2MB0G
A1UdDgQWBBS452n4Ma6rEdnyx381dj1KWLvvljB1BgNVHSMEbjBsgBR3IMguZWsV
e29a2OzMklTQQdaYiqFRpE8wTTEeMBwGA1UECgwVRnJlaWZ1bmsgQnJhdW5zY2h3
ZWlnMSswKQYDVQQDDCJGcmVpZnVuayBCcmF1bnNjaHdlaWcgZXRjZCBDQSBSb290
ggEBMAkGA1UdEwQCMAAwEwYDVR0lBAwwCgYIKwYBBQUHAwIwDQYJKoZIhvcNAQEL
BQADggEBAAmdg2/CnrtOq+ByzkK1VFlXr3UzQc4Sg4nSdn0IWzHKuEqWSFLnPx2U
SPuLkTzYfDVvqVxKgcj2lca9H0zPxmx+0ziWYBcY9tdX5bu3SmKfUU/zn2aU9FnX
B3p5XFYyLd+6hYUVwQMiBemry1dL1lp2CniSG/PdZdtBF0XtPP/Eyk3/aXFMhj9I
waecsHSb6NvgEq8Dz43dKseyxETxMD7JoxZnh2B4Y6ZdVw0vpeZ8yv6aA483vmnR
vOYQjBl8ZDCjQzW+4z/xNz0/Rzm8+60ab6gogbCZ3bQ+bNymTrxRtHPoSV9thzZW
WcIbPHOyjkM3x3ofbIRVeHxuEUSfA+Y=
-----END CERTIFICATE-----
