Certificate:
    Data:
        Version: 3 (0x2)
        Serial Number: 8 (0x8)
        Signature Algorithm: sha256WithRSAEncryption
        Issuer: O=Freifunk M\xC3\x83\xC2\xBCnchen, CN=Freifunk M\xC3\x83\xC2\xBCnchen etcd CA Root
        Validity
            Not Before: Jan  1 00:00:00 1970 GMT
            Not After : Dec 31 23:59:59 9999 GMT
        Subject: O=Freifunk M\xC3\x83\xC2\xBCnchen, CN=Freifunk M\xC3\x83\xC2\xBCnchen parker-gw03 (client)
        Subject Public Key Info:
            Public Key Algorithm: rsaEncryption
                Public-Key: (2048 bit)
                Modulus:
                    00:81:ea:e7:52:1c:76:f4:30:e3:18:63:52:df:f9:
                    4c:6f:72:ad:9b:5d:71:ce:a5:2d:11:26:ef:56:98:
                    9b:0a:6c:7f:2d:ef:0c:11:51:6f:02:fe:d0:11:47:
                    fe:0b:01:12:db:e0:3a:ea:8f:8a:64:c9:f7:07:86:
                    38:c6:34:c7:f0:53:97:65:38:b6:d7:1b:3e:71:35:
                    36:16:8f:57:c3:93:97:11:f6:60:5d:95:07:c0:87:
                    b1:27:7c:e2:43:f3:bf:aa:09:9a:29:01:f5:5e:0a:
                    eb:fd:f1:c5:3e:7b:7f:93:3c:67:a8:ae:5e:04:4f:
                    cc:a1:d9:88:9f:f2:69:38:36:95:95:7c:50:24:5a:
                    d3:52:6d:bb:6c:cc:cd:fb:81:38:c4:46:53:28:ef:
                    65:de:f7:4f:bc:22:a0:d0:72:a4:cb:20:57:78:71:
                    47:35:0d:00:2d:69:84:24:18:cc:46:a1:b1:d4:32:
                    36:e8:bd:fb:5b:7e:d0:8e:df:76:81:d4:58:df:db:
                    71:55:ca:7e:b8:a4:75:2c:df:6c:ef:05:5d:2a:3b:
                    12:d9:0a:61:a5:3e:8b:88:69:f1:f8:1e:a9:5d:62:
                    88:0d:95:ad:8d:00:1d:6a:a4:99:d3:16:b1:e3:1e:
                    60:81:17:41:61:47:3b:d3:14:b0:5f:31:86:78:3a:
                    ef:ff
                Exponent: 65537 (0x10001)
        X509v3 extensions:
            X509v3 Subject Key Identifier: 
                FA:E1:20:EF:8A:57:EE:9B:60:2E:0F:E8:AE:67:0F:C2:57:20:1B:AD
            X509v3 Authority Key Identifier: 
                keyid:6C:12:E9:36:70:96:ED:B1:DD:17:53:F0:7D:78:77:3A:99:05:B3:6B
                DirName:/O=Freifunk M\xC3\x83\xC2\xBCnchen/CN=Freifunk M\xC3\x83\xC2\xBCnchen etcd CA Root
                serial:01
            X509v3 Basic Constraints: 
                CA:FALSE
            X509v3 Extended Key Usage: 
                TLS Web Client Authentication
    Signature Algorithm: sha256WithRSAEncryption
    Signature Value:
        73:f1:c6:c7:1b:fd:41:c2:94:90:d4:a5:8d:ec:18:1f:f3:9a:
        5d:37:12:61:71:a9:45:1d:48:29:f0:c7:00:29:ff:d3:32:35:
        22:a8:d8:84:d1:ce:c1:ca:6e:ac:de:f6:5e:8b:72:44:93:45:
        0a:14:77:77:a3:3d:f6:89:4b:2d:58:ea:ac:28:78:f5:72:90:
        a6:39:1e:20:3f:c7:3a:b4:f1:5e:2e:e9:2b:04:85:e5:17:d4:
        bc:da:cb:33:ff:cb:39:f9:13:51:41:f0:48:fa:61:5a:e7:68:
        54:19:c2:11:81:2f:d8:e4:7a:77:97:e9:06:6a:be:51:6f:8e:
        19:8d:0d:14:b6:4b:cb:3a:b7:ef:28:b2:60:6e:83:9d:c4:db:
        ea:4c:a2:78:14:83:89:5f:06:bb:62:a9:2f:c7:fa:86:99:58:
        79:31:cc:ac:98:fa:ce:85:be:a0:3f:bd:f6:7e:0e:8e:85:74:
        00:b7:9b:30:f9:db:0a:a1:b3:25:01:17:60:3d:eb:0c:9d:c6:
        90:65:d1:62:3b:fa:97:2c:4e:2f:19:18:e7:05:92:c5:5e:5f:
        ce:70:f8:bf:9e:6c:d7:f7:54:f5:88:29:f5:fd:83:c9:81:7c:
        33:99:cb:16:db:f8:ae:46:8e:81:c5:db:9f:77:5f:58:3e:b1:
        52:5d:53:16
-----BEGIN CERTIFICATE-----
MIIDzTCCArWgAwIBAgIBCDANBgkqhkiG9w0BAQsFADBJMRwwGgYDVQQKDBNGcmVp
ZnVuayBNw4PCvG5jaGVuMSkwJwYDVQQDDCBGcmVpZnVuayBNw4PCvG5jaGVuIGV0
Y2QgQ0EgUm9vdDAgFw03MDAxMDEwMDAwMDBaGA85OTk5MTIzMTIzNTk1OVowUTEc
MBoGA1UECgwTRnJlaWZ1bmsgTcODwrxuY2hlbjExMC8GA1UEAwwoRnJlaWZ1bmsg
TcODwrxuY2hlbiBwYXJrZXItZ3cwMyAoY2xpZW50KTCCASIwDQYJKoZIhvcNAQEB
BQADggEPADCCAQoCggEBAIHq51IcdvQw4xhjUt/5TG9yrZtdcc6lLREm71aYmwps
fy3vDBFRbwL+0BFH/gsBEtvgOuqPimTJ9weGOMY0x/BTl2U4ttcbPnE1NhaPV8OT
lxH2YF2VB8CHsSd84kPzv6oJmikB9V4K6/3xxT57f5M8Z6iuXgRPzKHZiJ/yaTg2
lZV8UCRa01Jtu2zMzfuBOMRGUyjvZd73T7wioNBypMsgV3hxRzUNAC1phCQYzEah
sdQyNui9+1t+0I7fdoHUWN/bcVXKfrikdSzfbO8FXSo7EtkKYaU+i4hp8fgeqV1i
iA2VrY0AHWqkmdMWseMeYIEXQWFHO9MUsF8xhng67/8CAwEAAaOBtTCBsjAdBgNV
HQ4EFgQU+uEg74pX7ptgLg/ormcPwlcgG60wcQYDVR0jBGowaIAUbBLpNnCW7bHd
F1PwfXh3OpkFs2uhTaRLMEkxHDAaBgNVBAoME0ZyZWlmdW5rIE3Dg8K8bmNoZW4x
KTAnBgNVBAMMIEZyZWlmdW5rIE3Dg8K8bmNoZW4gZXRjZCBDQSBSb290ggEBMAkG
A1UdEwQCMAAwEwYDVR0lBAwwCgYIKwYBBQUHAwIwDQYJKoZIhvcNAQELBQADggEB
AHPxxscb/UHClJDUpY3sGB/zml03EmFxqUUdSCnwxwAp/9MyNSKo2ITRzsHKbqze
9l6LckSTRQoUd3ejPfaJSy1Y6qwoePVykKY5HiA/xzq08V4u6SsEheUX1LzayzP/
yzn5E1FB8Ej6YVrnaFQZwhGBL9jkeneX6QZqvlFvjhmNDRS2S8s6t+8osmBug53E
2+pMongUg4lfBrtiqS/H+oaZWHkxzKyY+s6FvqA/vfZ+Do6FdAC3mzD52wqhsyUB
F2A96wydxpBl0WI7+pcsTi8ZGOcFksVeX85w+L+ebNf3VPWIKfX9g8mBfDOZyxbb
+K5GjoHF2593X1g+sVJdUxY=
-----END CERTIFICATE-----
