Certificate:
    Data:
        Version: 3 (0x2)
        Serial Number: 4 (0x4)
        Signature Algorithm: sha256WithRSAEncryption
        Issuer: O=Freifunk M\xC3\x83\xC2\xBCnchen, CN=Freifunk M\xC3\x83\xC2\xBCnchen etcd CA Root
        Validity
            Not Before: Jan  1 00:00:00 1970 GMT
            Not After : Dec 31 23:59:59 9999 GMT
        Subject: O=Freifunk M\xC3\x83\xC2\xBCnchen, CN=Freifunk M\xC3\x83\xC2\xBCnchen parker-gw03 (server)
        Subject Public Key Info:
            Public Key Algorithm: rsaEncryption
                Public-Key: (2048 bit)
                Modulus:
                    00:d8:44:5b:57:03:74:11:26:47:39:84:bd:06:18:
                    5a:3e:37:be:5b:7e:83:8a:81:3e:ab:c9:7f:fb:55:
                    6d:b4:de:35:72:f2:55:1c:d1:09:f4:c1:29:dc:6e:
                    55:27:9c:d4:f9:6f:87:f0:30:e2:e8:b6:d4:49:70:
                    ac:7b:b6:fc:b1:a9:f2:0c:80:39:e0:14:8e:70:8d:
                    8b:bb:6d:2c:4f:44:8d:65:06:83:45:9b:05:c7:4e:
                    03:01:dc:6b:d3:46:95:59:e3:48:30:a2:a6:71:80:
                    86:62:b5:ba:92:63:75:fa:cb:05:e6:39:d1:3d:01:
                    77:0a:8d:3a:1e:d5:e3:15:1e:af:fd:09:b3:d2:2e:
                    48:d7:b1:19:65:ce:93:7a:fe:89:af:ea:15:c9:04:
                    9d:67:7c:ff:e3:53:96:aa:5c:c2:3e:07:9f:7b:b6:
                    ae:14:f9:2b:de:56:d1:11:4f:47:bd:e3:81:ff:72:
                    db:54:b5:20:0b:c0:00:b2:e3:c5:2a:e7:7a:cf:57:
                    f2:bd:21:32:14:71:b1:e2:66:ff:48:00:85:b5:7c:
                    0b:dd:8b:7c:73:c6:6f:b0:72:17:95:34:67:fc:67:
                    76:7c:d4:52:b6:df:80:08:17:e0:21:5a:3e:c3:af:
                    93:fd:2c:f5:06:a9:9c:a1:22:21:f5:5a:0e:7c:0a:
                    42:2b
                Exponent: 65537 (0x10001)
        X509v3 extensions:
            X509v3 Subject Key Identifier: 
                1C:08:DE:CE:4B:3A:21:FF:75:CD:F3:B7:93:10:93:68:97:E0:06:11
            X509v3 Authority Key Identifier: 
                keyid:6C:12:E9:36:70:96:ED:B1:DD:17:53:F0:7D:78:77:3A:99:05:B3:6B
                DirName:/O=Freifunk M\xC3\x83\xC2\xBCnchen/CN=Freifunk M\xC3\x83\xC2\xBCnchen etcd CA Root
                serial:01
            X509v3 Basic Constraints: 
                CA:FALSE
            X509v3 Extended Key Usage: 
                TLS Web Server Authentication, TLS Web Client Authentication
            X509v3 Subject Alternative Name: 
                IP Address:10.0.0.3
    Signature Algorithm: sha256WithRSAEncryption
    Signature Value:
        25:cb:79:95:77:50:f8:26:97:a0:21:55:1c:01:62:26:01:ea:
        e5:81:6d:de:74:3d:0e:93:d9:cb:fd:e3:9d:1d:73:6f:0f:68:
        d6:e6:2b:38:32:7a:a3:f8:5c:2a:eb:a4:9c:eb:72:69:cd:b0:
        9b:b9:fc:5b:54:f7:49:69:ba:de:96:33:8d:63:d9:cd:5c:f1:
        ac:20:49:40:a5:6f:01:39:d2:2b:9c:ff:e9:1b:f6:c2:9b:84:
        e4:69:9a:2b:fb:69:12:ca:60:95:c0:c1:3b:ff:5c:e4:56:e0:
        3a:39:63:8b:cf:39:cf:8f:d7:c3:f0:68:45:2f:f5:59:c9:53:
        a1:2f:fb:ec:19:10:8d:ee:a0:df:d4:61:4a:d2:9a:28:4c:c6:
        ce:35:b2:b9:d0:68:14:8b:03:92:8f:27:2a:02:a5:fc:f0:fc:
        68:aa:d5:ff:f3:4b:bd:f8:b8:0a:86:fd:ff:3a:a1:07:46:f5:
        3d:56:09:dd:14:a4:e8:35:38:fa:50:b3:b0:74:d7:13:24:df:
        d6:55:df:1c:1d:5e:43:5a:a8:dd:69:b0:a1:23:da:39:21:15:
        90:de:4b:34:46:8f:3d:ca:6e:17:ea:05:15:5e:39:7e:d2:16:
        ce:9e:12:65:aa:8b:d7:fc:2e:2e:1d:24:a5:12:ed:8d:b1:ad:
        e5:40:ed:3e
-----BEGIN CERTIFICATE-----
MIID6DCCAtCgAwIBAgIBBDANBgkqhkiG9w0BAQsFADBJMRwwGgYDVQQKDBNGcmVp
ZnVuayBNw4PCvG5jaGVuMSkwJwYDVQQDDCBGcmVpZnVuayBNw4PCvG5jaGVuIGV0
Y2QgQ0EgUm9vdDAgFw03MDAxMDEwMDAwMDBaGA85OTk5MTIzMTIzNTk1OVowUTEc
MBoGA1UECgwTRnJlaWZ1bmsgTcODwrxuY2hlbjExMC8GA1UEAwwoRnJlaWZ1bmsg
TcODwrxuY2hlbiBwYXJrZXItZ3cwMyAoc2VydmVyKTCCASIwDQYJKoZIhvcNAQEB
BQADggEPADCCAQoCggEBANhEW1cDdBEmRzmEvQYYWj43vlt+g4qBPqvJf/tVbbTe
NXLyVRzRCfTBKdxuVSec1Plvh/Aw4ui21ElwrHu2/LGp8gyAOeAUjnCNi7ttLE9E
jWUGg0WbBcdOAwHca9NGlVnjSDCipnGAhmK1upJjdfrLBeY50T0BdwqNOh7V4xUe
r/0Js9IuSNexGWXOk3r+ia/qFckEnWd8/+NTlqpcwj4Hn3u2rhT5K95W0RFPR73j
gf9y21S1IAvAALLjxSrnes9X8r0hMhRxseJm/0gAhbV8C92LfHPGb7ByF5U0Z/xn
dnzUUrbfgAgX4CFaPsOvk/0s9QapnKEiIfVaDnwKQisCAwEAAaOB0DCBzTAdBgNV
HQ4EFgQUHAjezks6If91zfO3kxCTaJfgBhEwcQYDVR0jBGowaIAUbBLpNnCW7bHd
F1PwfXh3OpkFs2uhTaRLMEkxHDAaBgNVBAoME0ZyZWlmdW5rIE3Dg8K8bmNoZW4x
KTAnBgNVBAMMIEZyZWlmdW5rIE3Dg8K8bmNoZW4gZXRjZCBDQSBSb290ggEBMAkG
A1UdEwQCMAAwHQYDVR0lBBYwFAYIKwYBBQUHAwEGCCsGAQUFBwMCMA8GA1UdEQQI
MAaHBAoAAAMwDQYJKoZIhvcNAQELBQADggEBACXLeZV3UPgml6AhVRwBYiYB6uWB
bd50PQ6T2cv9450dc28PaNbmKzgyeqP4XCrrpJzrcmnNsJu5/FtU90lput6WM41j
2c1c8awgSUClbwE50iuc/+kb9sKbhORpmiv7aRLKYJXAwTv/XORW4Do5Y4vPOc+P
18PwaEUv9VnJU6Ev++wZEI3uoN/UYUrSmihMxs41srnQaBSLA5KPJyoCpfzw/Giq
1f/zS734uAqG/f86oQdG9T1WCd0UpOg1OPpQs7B01xMk39ZV3xwdXkNaqN1psKEj
2jkhFZDeSzRGjz3KbhfqBRVeOX7SFs6eEmWqi9f8Li4dJKUS7Y2xreVA7T4=
-----END CERTIFICATE-----
