Certificate:
    Data:
        Version: 3 (0x2)
        Serial Number: 1 (0x1)
        Signature Algorithm: sha256WithRSAEncryption
        Issuer: O=Freifunk M\xC3\x83\xC2\xBCnchen, CN=Freifunk M\xC3\x83\xC2\xBCnchen etcd CA Root
        Validity
            Not Before: Jan  1 00:00:00 1970 GMT
            Not After : Dec 31 23:59:59 9999 GMT
        Subject: O=Freifunk M\xC3\x83\xC2\xBCnchen, CN=Freifunk M\xC3\x83\xC2\xBCnchen etcd CA Root
        Subject Public Key Info:
            Public Key Algorithm: rsaEncryption
                Public-Key: (2048 bit)
                Modulus:
                    00:a4:43:18:5b:89:cf:16:13:d3:97:c9:cb:ae:5e:
                    37:90:6a:f9:b4:54:ac:4e:81:b2:3f:ff:95:54:e3:
                    7d:fa:d0:86:57:fa:25:a7:ab:8d:c6:f4:2e:5b:f7:
                    e0:df:00:b1:db:32:0a:0f:34:78:e8:68:01:10:e4:
                    bc:3b:3e:d4:eb:6f:c2:fc:63:01:79:5c:f0:a1:4f:
                    ae:c7:cf:2d:21:f2:4e:bc:26:54:87:b2:35:2d:e1:
                    e0:f5:3f:d2:ba:f2:7a:6f:27:59:1f:2f:97:a2:cd:
                    0e:6b:2f:59:45:7f:1e:71:1c:08:3a:ad:11:ba:5d:
                    97:99:fc:10:ce:bd:e3:53:31:e9:55:81:97:f6:01:
                    05:9f:4c:e9:e1:fd:48:49:a6:d9:6e:28:80:4a:66:
                    74:6d:d7:ba:53:af:0f:e8:eb:73:51:7f:36:6a:e1:
                    aa:f0:7b:85:24:bc:3f:73:33:5b:84:9b:72:f4:a1:
                    fb:de:c0:b6:af:df:ce:1b:28:40:24:10:42:39:d3:
                    65:5f:37:1c:22:c5:e6:98:22:30:54:00:c2:c0:03:
                    7b:6c:ee:11:0c:fb:7f:08:2d:15:64:05:3a:1c:c0:
                    3b:f1:48:38:c4:02:91:c8:ba:af:e1:11:de:0d:28:
                    3d:70:1e:4b:6c:94:21:9f:bb:c4:03:9f:8b:e1:16:
                    b4:bb
                Exponent: 65537 (0x10001)
        X509v3 extensions:
            X509v3 Subject Key Identifier: 
                6C:12:E9:36:70:96:ED:B1:DD:17:53:F0:7D:78:77:3A:99:05:B3:6B
            X509v3 Authority Key Identifier: 
                keyid:6C:12:E9:36:70:96:ED:B1:DD:17:53:F0:7D:78:77:3A:99:05:B3:6B
                DirName:/O=Freifunk M\xC3\x83\xC2\xBCnchen/CN=Freifunk M\xC3\x83\xC2\xBCnchen etcd CA Root
                serial:01
            X509v3 Basic Constraints: 
                CA:TRUE
    Signature Algorithm: sha256WithRSAEncryption
    Signature Value:
        a3:4c:76:cb:7d:01:bd:a6:ff:a9:63:36:48:45:4a:b2:d9:b6:
        ba:2c:73:72:a8:8f:04:a6:b8:ea:68:63:25:b7:a8:e4:8a:6a:
        64:43:37:ea:77:ed:dd:cc:b8:21:f5:8a:13:b6:b9:b3:49:96:
        3f:f1:8d:90:02:24:70:15:4e:c6:91:f1:f4:a2:83:31:28:96:
        01:39:17:1f:7f:a9:27:c9:60:74:7f:fc:41:86:28:e5:6f:3b:
        42:95:d4:22:1b:6f:6d:4d:a2:36:7d:be:c1:d7:9c:62:31:92:
        f0:39:e4:11:00:2a:a4:94:51:f1:fd:92:7d:d2:a8:5c:ae:8e:
        62:16:2e:40:c8:fb:68:3e:1d:83:0f:7d:4f:50:89:e1:89:62:
        7a:89:97:0d:4d:25:b2:aa:57:1c:4d:7b:96:6e:8b:de:7e:26:
        22:8c:c9:49:1c:6a:22:00:6e:b3:2c:00:aa:5a:4a:41:01:ed:
        fb:57:60:71:85:6d:2c:25:0b:b6:c2:dc:53:91:dc:a1:e5:d5:
        7d:01:d0:c7:d0:86:c0:48:a4:09:2b:f5:4c:e1:bb:b0:5b:32:
        0f:4a:4a:82:45:e8:8e:d7:95:e1:37:f8:48:3f:f7:f6:7d:c1:
        c5:ee:5c:23:7b:57:2b:78:54:ea:5f:84:ac:d8:3b:89:9d:4a:
        3e:86:64:68
-----BEGIN CERTIFICATE-----
MIIDszCCApugAwIBAgIBATANBgkqhkiG9w0BAQsFADBJMRwwGgYDVQQKDBNGcmVp
ZnVuayBNw4PCvG5jaGVuMSkwJwYDVQQDDCBGcmVpZnVuayBNw4PCvG5jaGVuIGV0
Y2QgQ0EgUm9vdDAgFw03MDAxMDEwMDAwMDBaGA85OTk5MTIzMTIzNTk1OVowSTEc
MBoGA1UECgwTRnJlaWZ1bmsgTcODwrxuY2hlbjEpMCcGA1UEAwwgRnJlaWZ1bmsg
TcODwrxuY2hlbiBldGNkIENBIFJvb3QwggEiMA0GCSqGSIb3DQEBAQUAA4IBDwAw
ggEKAoIBAQCkQxhbic8WE9OXycuuXjeQavm0VKxOgbI//5VU43360IZX+iWnq43G
9C5b9+DfALHbMgoPNHjoaAEQ5Lw7PtTrb8L8YwF5XPChT67Hzy0h8k68JlSHsjUt
4eD1P9K68npvJ1kfL5eizQ5rL1lFfx5xHAg6rRG6XZeZ/BDOveNTMelVgZf2AQWf
TOnh/UhJptluKIBKZnRt17pTrw/o63NRfzZq4arwe4UkvD9zM1uEm3L0ofvewLav
384bKEAkEEI502VfNxwixeaYIjBUAMLAA3ts7hEM+38ILRVkBTocwDvxSDjEApHI
uq/hEd4NKD1wHktslCGfu8QDn4vhFrS7AgMBAAGjgaMwgaAwHQYDVR0OBBYEFGwS
6TZwlu2x3RdT8H14dzqZBbNrMHEGA1UdIwRqMGiAFGwS6TZwlu2x3RdT8H14dzqZ
BbNroU2kSzBJMRwwGgYDVQQKDBNGcmVpZnVuayBNw4PCvG5jaGVuMSkwJwYDVQQD
DCBGcmVpZnVuayBNw4PCvG5jaGVuIGV0Y2QgQ0EgUm9vdIIBATAMBgNVHRMEBTAD
AQH/MA0GCSqGSIb3DQEBCwUAA4IBAQCjTHbLfQG9pv+pYzZIRUqy2ba6LHNyqI8E
prjqaGMlt6jkimpkQzfqd+3dzLgh9YoTtrmzSZY/8Y2QAiRwFU7GkfH0ooMxKJYB
ORcff6knyWB0f/xBhijlbztCldQiG29tTaI2fb7B15xiMZLwOeQRACqklFHx/ZJ9
0qhcro5iFi5AyPtoPh2DD31PUInhiWJ6iZcNTSWyqlccTXuWbovefiYijMlJHGoi
AG6zLACqWkpBAe37V2BxhW0sJQu2wtxTkdyh5dV9AdDH0IbASKQJK/VM4buwWzIP
SkqCReiO15XhN/hIP/f2fcHF7lwje1creFTqX4Ss2DuJnUo+hmRo
-----END CERTIFICATE-----
