Certificate:
    Data:
        Version: 3 (0x2)
        Serial Number: 1 (0x1)
        Signature Algorithm: sha256WithRSAEncryption
        Issuer: O=Freifunk M\xC3\x83\xC2\xBCnchen, CN=Freifunk M\xC3\x83\xC2\xBCnchen etcd CA Root
        Validity
            Not Before: Jan  1 00:00:00 1970 GMT
            Not After : Dec 31 23:59:59 9999 GMT
        Subject: O=Freifunk M\xC3\x83\xC2\xBCnchen, CN=Freifunk M\xC3\x83\xC2\xBCnchen etcd CA Root
        Subject Public Key Info:
            Public Key Algorithm: rsaEncryption
                Public-Key: (2048 bit)
                Modulus:
                    00:bb:ea:c5:51:1f:21:c3:fb:71:2b:83:fd:93:1c:
                    b4:0f:16:b2:5e:29:7b:56:d0:24:d9:61:20:47:44:
                    f1:11:03:79:6d:3c:ae:59:a8:2b:78:85:0f:47:62:
                    4d:cb:3a:5c:f5:8b:73:e6:83:c3:34:ea:4a:ea:c3:
                    7d:35:05:8b:37:ce:06:02:69:6a:ac:f8:5a:3a:69:
                    9e:68:5e:d4:25:01:24:7d:76:37:a8:eb:b4:de:15:
                    bf:cf:d9:c7:dc:f1:b1:42:9c:91:28:c0:61:16:79:
                    81:18:85:49:b3:c1:aa:cd:49:6a:9e:fa:8e:d3:62:
                    b0:43:69:2e:10:bc:48:2f:f8:41:79:19:9e:b6:df:
                    da:ad:a5:83:3f:11:07:46:56:33:0b:ac:5c:40:ce:
                    22:c7:fd:3a:b8:e3:ee:e7:45:28:26:c1:16:bd:b6:
                    0b:2c:ef:79:a1:7c:c6:1f:1c:57:b6:3b:17:c1:62:
                    db:c3:4c:de:43:4f:8d:aa:69:a8:d9:c3:de:57:77:
                    86:56:ad:e9:8b:5e:48:ad:4b:18:65:8b:3c:10:34:
                    60:3f:ad:41:13:e4:af:17:7e:15:7f:86:52:d2:ac:
                    05:97:92:fa:86:34:b3:2b:aa:68:2e:57:9a:af:c4:
                    72:5e:32:9e:26:c8:49:bb:02:3b:5c:22:df:04:99:
                    f6:df
                Exponent: 65537 (0x10001)
        X509v3 extensions:
            X509v3 Subject Key Identifier: 
                48:57:9D:85:38:DF:0F:D8:89:66:84:5B:B6:02:00:D9:7B:8C:E6:C0
            X509v3 Authority Key Identifier: 
                keyid:48:57:9D:85:38:DF:0F:D8:89:66:84:5B:B6:02:00:D9:7B:8C:E6:C0
                DirName:/O=Freifunk M\xC3\x83\xC2\xBCnchen/CN=Freifunk M\xC3\x83\xC2\xBCnchen etcd CA Root
                serial:01
            X509v3 Basic Constraints: 
                CA:TRUE
    Signature Algorithm: sha256WithRSAEncryption
    Signature Value:
        31:62:c1:da:01:be:cf:62:40:41:e9:c4:64:fd:7c:be:27:aa:
        e1:9f:6d:ad:6a:7f:5c:4d:70:a9:11:f8:7d:c9:83:24:33:32:
        c8:3b:85:71:5b:25:45:07:c0:3e:74:92:b3:19:c2:f0:cf:f0:
        d0:e3:f1:4d:61:1b:28:57:a5:b2:53:f9:11:6f:2a:41:34:f4:
        ae:4b:bd:ec:25:1f:50:d9:ab:bd:0d:04:3d:51:64:4e:35:e6:
        a6:52:6e:ea:af:9d:8a:93:05:33:2b:b0:cc:45:51:0b:eb:5d:
        56:9a:bd:07:87:4c:5b:97:ee:ac:de:87:32:e7:50:f1:d8:0a:
        5b:5f:d2:1a:4e:d8:00:df:f7:ae:7d:96:ad:04:0f:e0:c2:a0:
        92:82:3a:53:50:6e:53:c6:20:3f:52:2d:d2:47:5d:7f:c6:5d:
        85:ff:05:c4:4b:3f:b3:e4:5e:29:b7:03:9e:31:92:ec:11:a4:
        01:bd:b5:24:21:28:ed:4a:bb:ce:73:f8:1d:8c:be:c3:8d:a9:
        f5:69:f5:b7:67:9a:41:50:c7:58:3f:3e:8f:93:7b:7f:98:54:
        36:4a:c1:06:5c:16:fb:d9:4b:6e:ad:4a:9a:9b:fe:24:5f:8f:
        f6:8f:9d:d3:9f:ac:e7:c2:1a:29:bf:ac:46:e3:eb:68:a3:e2:
        fc:e6:46:f7
-----BEGIN CERTIFICATE-----
MIIDszCCApugAwIBAgIBATANBgkqhkiG9w0BAQsFADBJMRwwGgYDVQQKDBNGcmVp
ZnVuayBNw4PCvG5jaGVuMSkwJwYDVQQDDCBGcmVpZnVuayBNw4PCvG5jaGVuIGV0
Y2QgQ0EgUm9vdDAgFw03MDAxMDEwMDAwMDBaGA85OTk5MTIzMTIzNTk1OVowSTEc
MBoGA1UECgwTRnJlaWZ1bmsgTcODwrxuY2hlbjEpMCcGA1UEAwwgRnJlaWZ1bmsg
TcODwrxuY2hlbiBldGNkIENBIFJvb3QwggEiMA0GCSqGSIb3DQEBAQUAA4IBDwAw
ggEKAoIBAQC76sVRHyHD+3Erg/2THLQPFrJeKXtW0CTZYSBHRPERA3ltPK5ZqCt4
hQ9HYk3LOlz1i3Pmg8M06krqw301BYs3zgYCaWqs+Fo6aZ5oXtQlASR9djeo67Te
Fb/P2cfc8bFCnJEowGEWeYEYhUmzwarNSWqe+o7TYrBDaS4QvEgv+EF5GZ6239qt
pYM/EQdGVjMLrFxAziLH/Tq44+7nRSgmwRa9tgss73mhfMYfHFe2OxfBYtvDTN5D
T42qaajZw95Xd4ZWremLXkitSxhlizwQNGA/rUET5K8XfhV/hlLSrAWXkvqGNLMr
qmguV5qvxHJeMp4myEm7AjtcIt8EmfbfAgMBAAGjgaMwgaAwHQYDVR0OBBYEFEhX
nYU43w/YiWaEW7YCANl7jObAMHEGA1UdIwRqMGiAFEhXnYU43w/YiWaEW7YCANl7
jObAoU2kSzBJMRwwGgYDVQQKDBNGcmVpZnVuayBNw4PCvG5jaGVuMSkwJwYDVQQD
DCBGcmVpZnVuayBNw4PCvG5jaGVuIGV0Y2QgQ0EgUm9vdIIBATAMBgNVHRMEBTAD
AQH/MA0GCSqGSIb3DQEBCwUAA4IBAQAxYsHaAb7PYkBB6cRk/Xy+J6rhn22tan9c
TXCpEfh9yYMkMzLIO4VxWyVFB8A+dJKzGcLwz/DQ4/FNYRsoV6WyU/kRbypBNPSu
S73sJR9Q2au9DQQ9UWRONeamUm7qr52KkwUzK7DMRVEL611Wmr0Hh0xbl+6s3ocy
51Dx2ApbX9IaTtgA3/eufZatBA/gwqCSgjpTUG5TxiA/Ui3SR11/xl2F/wXESz+z
5F4ptwOeMZLsEaQBvbUkISjtSrvOc/gdjL7Djan1afW3Z5pBUMdYPz6Pk3t/mFQ2
SsEGXBb72UturUqam/4kX4/2j53Tn6znwhopv6xG4+too+L85kb3
-----END CERTIFICATE-----
