Certificate:
    Data:
        Version: 3 (0x2)
        Serial Number: 1 (0x1)
        Signature Algorithm: sha256WithRSAEncryption
        Issuer: O=Freifunk M\xC3\x83\xC2\xBCnchen, CN=Freifunk M\xC3\x83\xC2\xBCnchen etcd CA Root
        Validity
            Not Before: Jan  1 00:00:00 1970 GMT
            Not After : Dec 31 23:59:59 9999 GMT
        Subject: O=Freifunk M\xC3\x83\xC2\xBCnchen, CN=Freifunk M\xC3\x83\xC2\xBCnchen etcd CA Root
        Subject Public Key Info:
            Public Key Algorithm: rsaEncryption
                Public-Key: (2048 bit)
                Modulus:
                    00:cc:77:45:b0:c1:a3:76:0c:16:a5:72:61:91:3c:
                    42:43:7a:44:8a:24:0c:5d:42:9f:62:60:c1:6b:85:
                    34:ae:bc:12:10:27:d5:a9:13:3a:84:31:d5:e4:38:
                    40:21:00:84:19:f9:27:fb:e8:9a:dc:4f:39:e0:d2:
                    ea:b4:b0:f2:80:0d:15:d9:db:54:45:fe:7d:de:17:
                    e9:3c:2d:48:aa:a9:5d:01:3f:33:f6:d9:ca:e2:25:
                    9e:28:f6:a6:ab:48:cc:68:f1:3d:ca:b2:a5:44:77:
                    a6:0a:af:14:6f:98:ba:f4:01:28:7d:91:57:76:56:
                    f4:94:f2:af:0f:49:3e:e4:5a:aa:6b:74:57:2f:e5:
                    20:d5:30:f9:e3:cf:51:56:4e:fa:81:2f:23:65:df:
                    6f:f1:83:0c:35:04:f4:0c:78:cf:e7:45:ab:8b:04:
                    b9:17:07:b5:42:c7:fb:11:e3:31:c5:1f:f8:b6:a8:
                    33:05:ae:78:87:b7:a7:95:25:a3:25:ef:e2:df:4b:
                    ec:6f:2a:93:cd:3d:e5:14:07:4a:be:09:23:ed:d6:
                    1b:09:e7:04:51:11:c8:e4:35:ce:0e:8a:67:15:a7:
                    f7:17:d9:a9:f0:cf:6f:09:2e:92:be:00:ae:32:e4:
                    63:63:07:6b:11:4a:b1:00:71:d1:af:d6:c0:99:77:
                    7b:b1
                Exponent: 65537 (0x10001)
        X509v3 extensions:
            X509v3 Subject Key Identifier: 
                D4:1A:BA:7F:8F:54:E4:D8:5C:A5:C5:33:09:15:25:C8:60:B9:14:93
            X509v3 Authority Key Identifier: 
                keyid:D4:1A:BA:7F:8F:54:E4:D8:5C:A5:C5:33:09:15:25:C8:60:B9:14:93
                DirName:/O=Freifunk M\xC3\x83\xC2\xBCnchen/CN=Freifunk M\xC3\x83\xC2\xBCnchen etcd CA Root
                serial:01
            X509v3 Basic Constraints: 
                CA:TRUE
    Signature Algorithm: sha256WithRSAEncryption
    Signature Value:
        47:21:73:ec:26:c9:8c:98:bc:b0:81:61:02:00:c5:29:4c:d9:
        20:53:6f:fd:3d:41:99:48:12:64:de:c4:73:52:ed:df:3a:82:
        85:55:f7:a4:24:4d:f6:ec:18:64:e5:50:63:ae:83:90:23:c2:
        c1:81:eb:fc:c8:79:25:a9:89:c7:9c:27:13:b6:f3:27:1f:3e:
        f7:f0:7e:0a:50:39:d4:4f:04:56:9d:32:c5:4e:7f:71:e8:d1:
        3b:cb:a8:21:d3:6c:ab:94:51:8c:23:72:23:24:a4:f5:fb:fa:
        ee:f0:da:b6:5c:bd:90:6b:21:bd:17:11:79:c9:35:22:3f:86:
        77:85:e5:33:83:72:97:5d:21:15:81:80:85:d5:b8:d1:52:84:
        bd:2c:ec:a9:07:6f:fb:37:60:92:27:e2:a0:90:2d:02:70:be:
        c9:8d:3a:4e:2c:1e:d4:d9:2b:84:10:5b:fc:5c:db:51:90:f9:
        22:7a:35:f4:c7:ee:b4:70:70:06:e0:a4:91:05:8f:f3:ff:35:
        f7:bb:65:24:61:7b:31:1d:e8:e2:85:b2:06:37:72:69:49:c8:
        b0:8e:04:ff:a8:f4:f2:75:6b:06:33:28:25:bb:7a:63:b0:b3:
        e7:ec:6d:7d:f9:a0:2b:88:1b:01:66:9e:94:4d:5a:39:05:b6:
        4c:67:1d:70
-----BEGIN CERTIFICATE-----
MIIDszCCApugAwIBAgIBATANBgkqhkiG9w0BAQsFADBJMRwwGgYDVQQKDBNGcmVp
ZnVuayBNw4PCvG5jaGVuMSkwJwYDVQQDDCBGcmVpZnVuayBNw4PCvG5jaGVuIGV0
Y2QgQ0EgUm9vdDAgFw03MDAxMDEwMDAwMDBaGA85OTk5MTIzMTIzNTk1OVowSTEc
MBoGA1UECgwTRnJlaWZ1bmsgTcODwrxuY2hlbjEpMCcGA1UEAwwgRnJlaWZ1bmsg
TcODwrxuY2hlbiBldGNkIENBIFJvb3QwggEiMA0GCSqGSIb3DQEBAQUAA4IBDwAw
ggEKAoIBAQDMd0WwwaN2DBalcmGRPEJDekSKJAxdQp9iYMFrhTSuvBIQJ9WpEzqE
MdXkOEAhAIQZ+Sf76JrcTzng0uq0sPKADRXZ21RF/n3eF+k8LUiqqV0BPzP22cri
JZ4o9qarSMxo8T3KsqVEd6YKrxRvmLr0ASh9kVd2VvSU8q8PST7kWqprdFcv5SDV
MPnjz1FWTvqBLyNl32/xgww1BPQMeM/nRauLBLkXB7VCx/sR4zHFH/i2qDMFrniH
t6eVJaMl7+LfS+xvKpPNPeUUB0q+CSPt1hsJ5wRREcjkNc4OimcVp/cX2anwz28J
LpK+AK4y5GNjB2sRSrEAcdGv1sCZd3uxAgMBAAGjgaMwgaAwHQYDVR0OBBYEFNQa
un+PVOTYXKXFMwkVJchguRSTMHEGA1UdIwRqMGiAFNQaun+PVOTYXKXFMwkVJchg
uRSToU2kSzBJMRwwGgYDVQQKDBNGcmVpZnVuayBNw4PCvG5jaGVuMSkwJwYDVQQD
DCBGcmVpZnVuayBNw4PCvG5jaGVuIGV0Y2QgQ0EgUm9vdIIBATAMBgNVHRMEBTAD
AQH/MA0GCSqGSIb3DQEBCwUAA4IBAQBHIXPsJsmMmLywgWECAMUpTNkgU2/9PUGZ
SBJk3sRzUu3fOoKFVfekJE327Bhk5VBjroOQI8LBgev8yHklqYnHnCcTtvMnHz73
8H4KUDnUTwRWnTLFTn9x6NE7y6gh02yrlFGMI3IjJKT1+/ru8Nq2XL2QayG9FxF5
yTUiP4Z3heUzg3KXXSEVgYCF1bjRUoS9LOypB2/7N2CSJ+KgkC0CcL7JjTpOLB7U
2SuEEFv8XNtRkPkiejX0x+60cHAG4KSRBY/z/zX3u2UkYXsxHejihbIGN3JpSciw
jgT/qPTydWsGMyglu3pjsLPn7G19+aAriBsBZp6UTVo5BbZMZx1w
-----END CERTIFICATE-----
