Certificate:
    Data:
        Version: 3 (0x2)
        Serial Number: 1 (0x1)
        Signature Algorithm: sha256WithRSAEncryption
        Issuer: O=Freifunk M\xC3\x83\xC2\xBCnchen, CN=Freifunk M\xC3\x83\xC2\xBCnchen etcd CA Root
        Validity
            Not Before: Jan  1 00:00:00 1970 GMT
            Not After : Dec 31 23:59:59 9999 GMT
        Subject: O=Freifunk M\xC3\x83\xC2\xBCnchen, CN=Freifunk M\xC3\x83\xC2\xBCnchen etcd CA Root
        Subject Public Key Info:
            Public Key Algorithm: rsaEncryption
                Public-Key: (2048 bit)
                Modulus:
                    00:bb:ed:d9:fe:26:ed:3b:63:a4:1a:4c:66:bd:2c:
                    41:81:2a:ed:6f:54:57:c2:82:3e:6c:69:2d:b1:1f:
                    41:ee:e5:c1:6a:ef:7d:96:90:01:7f:fc:7a:86:5b:
                    c8:77:41:cf:23:f3:fd:54:22:19:fb:13:db:7b:ac:
                    2e:1d:67:e0:43:69:c4:3a:a5:45:ce:09:cb:a6:e1:
                    98:97:f1:a4:38:5e:52:6c:20:88:97:01:93:5d:2f:
                    78:f9:1f:bb:9e:00:63:0b:0f:fe:20:43:28:41:0f:
                    a7:97:08:61:8f:89:84:e7:ee:39:4c:4d:f5:9d:c7:
                    40:09:1a:42:e4:3e:4d:4c:9f:90:64:40:a1:fa:b0:
                    48:48:09:db:d5:66:d9:8b:e3:6e:b8:54:da:1d:40:
                    de:ac:ba:12:91:f7:e3:57:60:a7:f7:49:86:49:e0:
                    12:ae:37:62:7c:6c:11:f2:de:44:98:2e:48:be:3b:
                    1b:5b:41:e0:57:a8:c7:c6:66:d3:16:ac:68:83:6d:
                    94:6a:ac:1a:0f:bb:ad:41:b0:90:2d:51:d3:73:4b:
                    e5:74:48:69:a0:c1:d2:bd:20:3c:d7:7e:15:10:e2:
                    3d:be:49:95:17:92:94:25:52:53:86:75:c3:97:e1:
                    6f:10:92:79:d6:94:7f:b2:be:47:69:e8:12:5b:b5:
                    fa:fb
                Exponent: 65537 (0x10001)
        X509v3 extensions:
            X509v3 Subject Key Identifier: 
                9D:5D:5E:86:06:F1:CD:F0:D8:6F:33:F9:D3:A3:1C:24:17:76:E1:AE
            X509v3 Authority Key Identifier: 
                keyid:9D:5D:5E:86:06:F1:CD:F0:D8:6F:33:F9:D3:A3:1C:24:17:76:E1:AE
                DirName:/O=Freifunk M\xC3\x83\xC2\xBCnchen/CN=Freifunk M\xC3\x83\xC2\xBCnchen etcd CA Root
                serial:01
            X509v3 Basic Constraints: 
                CA:TRUE
    Signature Algorithm: sha256WithRSAEncryption
    Signature Value:
        66:f9:82:d9:49:da:86:49:57:91:ee:3b:67:8c:9f:55:0e:d8:
        c9:26:04:02:a9:20:14:40:eb:4b:f1:f2:e4:ac:5b:ce:4d:27:
        e5:76:95:10:b7:4a:ab:cb:e9:bb:ed:ce:1f:52:b5:dc:e8:43:
        0c:b9:92:a1:62:5f:a8:40:ea:c7:d7:f2:40:c6:3c:8c:d2:6d:
        68:6b:cc:d1:7c:ed:f1:ad:74:db:b5:c2:2f:e5:0d:6f:75:8d:
        13:c6:64:39:8c:08:f5:e2:6d:f4:e1:1f:cd:9b:b2:8a:a7:45:
        54:4d:09:87:84:6f:6c:db:33:29:eb:81:c0:c9:c9:af:b4:09:
        49:33:b2:f6:8e:6d:7d:12:01:d9:f8:71:dd:b4:16:7c:12:a8:
        e9:0c:6f:7d:a4:1c:5d:50:c1:aa:e1:ed:97:5b:e2:fa:d6:b1:
        60:a6:17:1a:db:3f:8b:00:95:fb:70:f5:d5:e0:5e:04:d2:17:
        2f:ab:a8:d0:13:bc:fd:5d:41:75:3a:8d:64:aa:d1:15:48:90:
        21:38:87:e5:ec:2f:04:10:38:cb:9a:c2:a2:08:c2:9d:5d:cd:
        98:a8:3c:62:27:bd:c2:9f:e5:39:66:f4:f6:82:6e:87:34:4e:
        dd:55:4b:65:ba:91:86:a1:46:72:90:05:49:a8:3c:26:f4:82:
        25:1e:03:9d
-----BEGIN CERTIFICATE-----
MIIDszCCApugAwIBAgIBATANBgkqhkiG9w0BAQsFADBJMRwwGgYDVQQKDBNGcmVp
ZnVuayBNw4PCvG5jaGVuMSkwJwYDVQQDDCBGcmVpZnVuayBNw4PCvG5jaGVuIGV0
Y2QgQ0EgUm9vdDAgFw03MDAxMDEwMDAwMDBaGA85OTk5MTIzMTIzNTk1OVowSTEc
MBoGA1UECgwTRnJlaWZ1bmsgTcODwrxuY2hlbjEpMCcGA1UEAwwgRnJlaWZ1bmsg
TcODwrxuY2hlbiBldGNkIENBIFJvb3QwggEiMA0GCSqGSIb3DQEBAQUAA4IBDwAw
ggEKAoIBAQC77dn+Ju07Y6QaTGa9LEGBKu1vVFfCgj5saS2xH0Hu5cFq732WkAF/
/HqGW8h3Qc8j8/1UIhn7E9t7rC4dZ+BDacQ6pUXOCcum4ZiX8aQ4XlJsIIiXAZNd
L3j5H7ueAGMLD/4gQyhBD6eXCGGPiYTn7jlMTfWdx0AJGkLkPk1Mn5BkQKH6sEhI
CdvVZtmL4264VNodQN6suhKR9+NXYKf3SYZJ4BKuN2J8bBHy3kSYLki+OxtbQeBX
qMfGZtMWrGiDbZRqrBoPu61BsJAtUdNzS+V0SGmgwdK9IDzXfhUQ4j2+SZUXkpQl
UlOGdcOX4W8QknnWlH+yvkdp6BJbtfr7AgMBAAGjgaMwgaAwHQYDVR0OBBYEFJ1d
XoYG8c3w2G8z+dOjHCQXduGuMHEGA1UdIwRqMGiAFJ1dXoYG8c3w2G8z+dOjHCQX
duGuoU2kSzBJMRwwGgYDVQQKDBNGcmVpZnVuayBNw4PCvG5jaGVuMSkwJwYDVQQD
DCBGcmVpZnVuayBNw4PCvG5jaGVuIGV0Y2QgQ0EgUm9vdIIBATAMBgNVHRMEBTAD
AQH/MA0GCSqGSIb3DQEBCwUAA4IBAQBm+YLZSdqGSVeR7jtnjJ9VDtjJJgQCqSAU
QOtL8fLkrFvOTSfldpUQt0qry+m77c4fUrXc6EMMuZKhYl+oQOrH1/JAxjyM0m1o
a8zRfO3xrXTbtcIv5Q1vdY0TxmQ5jAj14m304R/Nm7KKp0VUTQmHhG9s2zMp64HA
ycmvtAlJM7L2jm19EgHZ+HHdtBZ8EqjpDG99pBxdUMGq4e2XW+L61rFgphca2z+L
AJX7cPXV4F4E0hcvq6jQE7z9XUF1Oo1kqtEVSJAhOIfl7C8EEDjLmsKiCMKdXc2Y
qDxiJ73Cn+U5ZvT2gm6HNE7dVUtlupGGoUZykAVJqDwm9IIlHgOd
-----END CERTIFICATE-----
