Certificate:
    Data:
        Version: 3 (0x2)
        Serial Number: 1 (0x1)
        Signature Algorithm: sha256WithRSAEncryption
        Issuer: O=Freifunk M\xC3\x83\xC2\xBCnchen, CN=Freifunk M\xC3\x83\xC2\xBCnchen etcd CA Root
        Validity
            Not Before: Jan  1 00:00:00 1970 GMT
            Not After : Dec 31 23:59:59 9999 GMT
        Subject: O=Freifunk M\xC3\x83\xC2\xBCnchen, CN=Freifunk M\xC3\x83\xC2\xBCnchen etcd CA Root
        Subject Public Key Info:
            Public Key Algorithm: rsaEncryption
                Public-Key: (2048 bit)
                Modulus:
                    00:cd:d1:86:6e:0a:dc:59:b1:1a:0b:91:f0:1f:3a:
                    e6:22:52:4f:38:44:bf:d2:23:3c:1c:ae:4f:e5:f3:
                    8e:0c:6b:94:ec:09:9f:44:74:0a:a1:d1:6f:3d:ae:
                    94:4d:27:7e:e5:9a:80:a4:af:28:14:f3:fa:79:46:
                    ee:59:d0:57:34:38:68:29:90:ef:59:b0:11:94:e0:
                    0b:1f:1e:5d:e4:d0:aa:51:46:b5:da:ca:26:3e:ee:
                    88:16:83:2e:a4:b3:43:df:59:50:38:f0:5a:fc:0c:
                    cf:c8:3d:a3:2f:b9:cb:96:64:73:48:7c:b9:a3:6f:
                    89:78:81:08:3e:cd:c6:fb:72:22:49:63:36:f7:ec:
                    8a:ff:c7:d4:a7:f6:89:a5:d4:78:f0:8e:05:b8:05:
                    bc:0c:3e:d7:7c:a5:1e:35:86:ab:51:ca:5f:71:90:
                    d7:e4:74:47:78:4e:23:c6:9b:a4:dc:93:65:51:c8:
                    2a:14:2d:00:e2:99:69:94:f0:f8:a2:a0:fd:b0:bb:
                    5c:31:a1:79:8d:6a:ee:dc:e9:fd:9e:3d:f5:3d:5b:
                    13:74:85:e9:c4:09:e5:33:68:29:cd:f2:28:fe:09:
                    34:ab:b6:50:27:04:ab:b8:51:69:e0:3a:2c:8d:81:
                    9d:db:54:d7:90:c2:97:88:bd:f3:87:f1:3c:31:50:
                    0b:65
                Exponent: 65537 (0x10001)
        X509v3 extensions:
            X509v3 Subject Key Identifier: 
                EE:31:B2:28:8E:19:6A:7B:51:C3:E0:2D:15:11:DB:62:B2:BD:13:80
            X509v3 Authority Key Identifier: 
                keyid:EE:31:B2:28:8E:19:6A:7B:51:C3:E0:2D:15:11:DB:62:B2:BD:13:80
                DirName:/O=Freifunk M\xC3\x83\xC2\xBCnchen/CN=Freifunk M\xC3\x83\xC2\xBCnchen etcd CA Root
                serial:01
            X509v3 Basic Constraints: 
                CA:TRUE
    Signature Algorithm: sha256WithRSAEncryption
    Signature Value:
        3e:fc:aa:4f:18:1a:50:b5:5a:55:99:61:66:9e:af:3c:08:59:
        da:81:a8:72:16:bd:ea:c4:0c:4c:af:19:7f:9b:92:88:71:10:
        36:94:fb:96:75:81:be:73:23:05:41:b3:ca:6d:ca:07:16:64:
        91:b7:45:7f:91:54:15:07:57:e5:33:ea:cf:20:e1:a1:db:a4:
        1b:55:3a:71:76:a3:48:65:e6:06:8d:06:22:ce:5e:8f:c7:21:
        05:da:12:1d:de:f9:16:33:d2:00:83:2d:20:dd:cb:af:df:93:
        08:51:ec:ad:42:7f:ec:d1:07:2a:e2:b7:b6:98:97:18:ed:19:
        ec:1f:09:f6:54:e8:a4:28:ab:c3:15:74:ef:e8:bf:3c:70:cf:
        d8:e6:60:09:2f:79:d8:5e:c1:88:96:d6:5d:ca:c7:43:45:2c:
        96:90:1b:c2:f8:2b:04:1f:ca:44:d7:52:41:ae:0c:cb:1f:11:
        ac:c9:b8:88:e5:93:21:53:63:9f:9f:62:72:38:cf:f6:33:13:
        ee:d2:30:7e:d7:2c:30:0d:0b:82:cb:e9:63:c8:74:54:e6:7f:
        ee:48:7b:7f:9b:d6:b2:a9:d8:9b:0c:d1:91:11:7d:0f:9b:c4:
        a6:e9:fe:ee:93:a8:1f:f1:4e:3f:4d:2f:cb:33:69:1f:92:df:
        4e:62:6d:e4
-----BEGIN CERTIFICATE-----
MIIDszCCApugAwIBAgIBATANBgkqhkiG9w0BAQsFADBJMRwwGgYDVQQKDBNGcmVp
ZnVuayBNw4PCvG5jaGVuMSkwJwYDVQQDDCBGcmVpZnVuayBNw4PCvG5jaGVuIGV0
Y2QgQ0EgUm9vdDAgFw03MDAxMDEwMDAwMDBaGA85OTk5MTIzMTIzNTk1OVowSTEc
MBoGA1UECgwTRnJlaWZ1bmsgTcODwrxuY2hlbjEpMCcGA1UEAwwgRnJlaWZ1bmsg
TcODwrxuY2hlbiBldGNkIENBIFJvb3QwggEiMA0GCSqGSIb3DQEBAQUAA4IBDwAw
ggEKAoIBAQDN0YZuCtxZsRoLkfAfOuYiUk84RL/SIzwcrk/l844Ma5TsCZ9EdAqh
0W89rpRNJ37lmoCkrygU8/p5Ru5Z0Fc0OGgpkO9ZsBGU4AsfHl3k0KpRRrXayiY+
7ogWgy6ks0PfWVA48Fr8DM/IPaMvucuWZHNIfLmjb4l4gQg+zcb7ciJJYzb37Ir/
x9Sn9oml1HjwjgW4BbwMPtd8pR41hqtRyl9xkNfkdEd4TiPGm6Tck2VRyCoULQDi
mWmU8PiioP2wu1wxoXmNau7c6f2ePfU9WxN0henECeUzaCnN8ij+CTSrtlAnBKu4
UWngOiyNgZ3bVNeQwpeIvfOH8TwxUAtlAgMBAAGjgaMwgaAwHQYDVR0OBBYEFO4x
siiOGWp7UcPgLRUR22KyvROAMHEGA1UdIwRqMGiAFO4xsiiOGWp7UcPgLRUR22Ky
vROAoU2kSzBJMRwwGgYDVQQKDBNGcmVpZnVuayBNw4PCvG5jaGVuMSkwJwYDVQQD
DCBGcmVpZnVuayBNw4PCvG5jaGVuIGV0Y2QgQ0EgUm9vdIIBATAMBgNVHRMEBTAD
AQH/MA0GCSqGSIb3DQEBCwUAA4IBAQA+/KpPGBpQtVpVmWFmnq88CFnagahyFr3q
xAxMrxl/m5KIcRA2lPuWdYG+cyMFQbPKbcoHFmSRt0V/kVQVB1flM+rPIOGh26Qb
VTpxdqNIZeYGjQYizl6PxyEF2hId3vkWM9IAgy0g3cuv35MIUeytQn/s0Qcq4re2
mJcY7RnsHwn2VOikKKvDFXTv6L88cM/Y5mAJL3nYXsGIltZdysdDRSyWkBvC+CsE
H8pE11JBrgzLHxGsybiI5ZMhU2Ofn2JyOM/2MxPu0jB+1ywwDQuCy+ljyHRU5n/u
SHt/m9ayqdibDNGREX0Pm8Sm6f7uk6gf8U4/TS/LM2kfkt9OYm3k
-----END CERTIFICATE-----
