Certificate:
    Data:
        Version: 3 (0x2)
        Serial Number: 1 (0x1)
    Signature Algorithm: sha256WithRSAEncryption
        Issuer: O=Freifunk Braunschweig, CN=Freifunk Braunschweig etcd CA Root
        Validity
            Not Before: Jan  1 00:00:00 1970 GMT
            Not After : Dec 31 23:59:59 9999 GMT
        Subject: O=Freifunk Braunschweig, CN=Freifunk Braunschweig etcd CA Root
        Subject Public Key Info:
            Public Key Algorithm: rsaEncryption
                Public-Key: (2048 bit)
                Modulus:
                    00:c8:fd:a2:4c:9e:05:f8:9f:31:26:37:ed:f9:41:
                    15:ec:ab:22:44:58:d1:11:d4:92:fc:73:6f:db:03:
                    17:3a:fc:77:c7:81:5e:76:33:53:08:b5:c1:86:b1:
                    63:c0:f7:5a:ea:e5:c5:0b:24:7b:bf:67:26:50:7f:
                    c4:08:19:e6:96:2d:3a:9e:00:1e:02:9b:a7:4a:15:
                    f1:c1:36:c5:86:db:d0:1c:6f:af:43:82:19:e3:48:
                    ac:83:07:39:d8:a6:7e:1b:4d:9d:b7:55:3d:bd:24:
                    a1:0b:42:79:bb:f3:ef:58:9f:81:4b:59:91:9b:a4:
                    5b:98:0a:9a:3f:4d:fc:48:42:a5:3d:0c:1a:48:dc:
                    30:2a:d9:3b:79:7f:41:c8:55:a5:94:dd:1f:3b:a5:
                    21:2b:3b:0b:3c:c0:2f:b6:54:2c:ca:16:9c:26:95:
                    19:7a:cb:98:1f:07:5e:88:0c:5e:f6:64:90:0e:77:
                    d8:40:17:6d:49:29:d2:48:ab:b5:30:6e:8d:fe:57:
                    c2:b8:91:fd:94:4d:20:37:ac:ee:53:38:f0:89:39:
                    a1:22:23:94:15:f2:77:7f:e2:e6:ad:35:e4:fd:07:
                    b0:e2:10:aa:d3:0f:f1:49:90:94:9e:d4:c5:15:28:
                    69:5b:78:4e:43:ca:a0:56:bd:e3:1f:38:b6:ac:07:
                    1d:af
                Exponent: 65537 (0x10001)
        X509v3 extensions:
            X509v3 Subject Key Identifier: 
                77:20:C8:2E:65:6B:15:7B:6F:5A:D8:EC:CC:92:54:D0:41:D6:98:8A
            X509v3 Authority Key Identifier: 
                keyid:77:20:C8:2E:65:6B:15:7B:6F:5A:D8:EC:CC:92:54:D0:41:D6:98:8A
                DirName:/O=Freifunk Braunschweig/CN=Freifunk Braunschweig etcd CA Root
                serial:01

            X509v3 Basic Constraints: 
                CA:TRUE
    Signature Algorithm: sha256WithRSAEncryption
         97:14:57:e5:1c:dc:e1:e3:74:52:a9:96:68:4e:94:a2:de:ee:
         51:aa:27:fc:4c:18:f6:51:0a:35:d5:08:1a:5c:7b:42:dd:a5:
         93:49:f1:d8:aa:b6:8e:b4:1b:99:99:c9:47:c4:b1:2a:1f:8e:
         5a:12:ba:ec:c2:60:44:e5:75:a8:41:48:bb:fc:47:d2:0a:b1:
         8d:a0:c6:46:86:15:a3:91:6d:b9:8f:8f:c6:13:0b:ac:69:c3:
         79:09:f0:5d:46:a9:b4:04:7b:79:b8:d4:82:ba:1c:5b:4f:ca:
         bb:8b:43:f2:5a:69:c7:fb:6e:21:6a:c9:19:9a:37:8a:50:21:
         49:09:7d:61:97:07:ea:64:f1:1e:1a:21:49:01:56:63:70:db:
         1d:3c:51:d0:2c:18:b2:bd:0f:a2:b6:6d:e2:73:80:d8:cf:3b:
         8c:e6:d9:cc:24:40:fd:3c:36:f7:5f:bb:83:e4:e2:68:60:51:
         ca:25:7f:4a:22:38:b6:9e:f7:a4:cb:d8:42:83:c3:2f:34:11:
         4a:ae:2b:9f:24:88:fa:50:91:bb:98:21:cc:1b:f4:f1:e1:ae:
         53:19:2d:f8:48:bd:a4:c3:3f:df:db:cc:c8:52:f4:82:bd:d4:
         0d:d7:2f:ff:19:6f:95:b7:ff:e1:3c:f5:5b:b1:59:b1:da:b8:
         95:cf:47:d5
-----BEGIN CERTIFICATE-----
MIIDwTCCAqmgAwIBAgIBATANBgkqhkiG9w0BAQsFADBNMR4wHAYDVQQKDBVGcmVp
ZnVuayBCcmF1bnNjaHdlaWcxKzApBgNVBAMMIkZyZWlmdW5rIEJyYXVuc2Nod2Vp
ZyBldGNkIENBIFJvb3QwIhgPMTk3MDAxMDEwMDAwMDBaGA85OTk5MTIzMTIzNTk1
OVowTTEeMBwGA1UECgwVRnJlaWZ1bmsgQnJhdW5zY2h3ZWlnMSswKQYDVQQDDCJG
cmVpZnVuayBCcmF1bnNjaHdlaWcgZXRjZCBDQSBSb290MIIBIjANBgkqhkiG9w0B
AQEFAAOCAQ8AMIIBCgKCAQEAyP2iTJ4F+J8xJjft+UEV7KsiRFjREdSS/HNv2wMX
Ovx3x4FedjNTCLXBhrFjwPda6uXFCyR7v2cmUH/ECBnmli06ngAeApunShXxwTbF
htvQHG+vQ4IZ40isgwc52KZ+G02dt1U9vSShC0J5u/PvWJ+BS1mRm6RbmAqaP038
SEKlPQwaSNwwKtk7eX9ByFWllN0fO6UhKzsLPMAvtlQsyhacJpUZesuYHwdeiAxe
9mSQDnfYQBdtSSnSSKu1MG6N/lfCuJH9lE0gN6zuUzjwiTmhIiOUFfJ3f+LmrTXk
/Qew4hCq0w/xSZCUntTFFShpW3hOQ8qgVr3jHzi2rAcdrwIDAQABo4GnMIGkMB0G
A1UdDgQWBBR3IMguZWsVe29a2OzMklTQQdaYijB1BgNVHSMEbjBsgBR3IMguZWsV
e29a2OzMklTQQdaYiqFRpE8wTTEeMBwGA1UECgwVRnJlaWZ1bmsgQnJhdW5zY2h3
ZWlnMSswKQYDVQQDDCJGcmVpZnVuayBCcmF1bnNjaHdlaWcgZXRjZCBDQSBSb290
ggEBMAwGA1UdEwQFMAMBAf8wDQYJKoZIhvcNAQELBQADggEBAJcUV+Uc3OHjdFKp
lmhOlKLe7lGqJ/xMGPZRCjXVCBpce0LdpZNJ8diqto60G5mZyUfEsSofjloSuuzC
YETldahBSLv8R9IKsY2gxkaGFaORbbmPj8YTC6xpw3kJ8F1GqbQEe3m41IK6HFtP
yruLQ/Jaacf7biFqyRmaN4pQIUkJfWGXB+pk8R4aIUkBVmNw2x08UdAsGLK9D6K2
beJzgNjPO4zm2cwkQP08Nvdfu4Pk4mhgUcolf0oiOLae96TL2EKDwy80EUquK58k
iPpQkbuYIcwb9PHhrlMZLfhIvaTDP9/bzMhS9IK91A3XL/8Zb5W3/+E89VuxWbHa
uJXPR9U=
-----END CERTIFICATE-----
