Certificate:
    Data:
        Version: 3 (0x2)
        Serial Number: 7 (0x7)
        Signature Algorithm: sha256WithRSAEncryption
        Issuer: O=Freifunk M\xC3\x83\xC2\xBCnchen, CN=Freifunk M\xC3\x83\xC2\xBCnchen etcd CA Root
        Validity
            Not Before: Jan  1 00:00:00 1970 GMT
            Not After : Dec 31 23:59:59 9999 GMT
        Subject: O=Freifunk M\xC3\x83\xC2\xBCnchen, CN=Freifunk M\xC3\x83\xC2\xBCnchen parker-gw02 (client)
        Subject Public Key Info:
            Public Key Algorithm: rsaEncryption
                Public-Key: (2048 bit)
                Modulus:
                    00:e4:ac:1c:60:bd:60:b2:b4:51:01:7a:75:b1:2d:
                    6a:1e:42:a5:b6:7b:c1:9f:19:fc:98:63:15:7b:83:
                    77:71:39:e1:fb:b1:57:31:af:48:6d:4f:8e:ba:5b:
                    a0:cd:2e:75:0a:19:9e:e5:37:3c:f1:03:b0:38:d2:
                    f9:e5:74:5c:0a:70:a8:97:98:bc:b1:e5:a3:5b:51:
                    53:89:71:64:8e:fb:6c:d8:54:2b:29:3b:aa:6e:cf:
                    f3:e8:2b:3a:91:0e:0a:7b:5a:5e:ee:a0:21:04:da:
                    4a:28:34:3d:e1:28:d0:a0:5c:a4:92:ec:27:70:95:
                    1e:eb:78:27:ff:07:21:03:a7:04:81:a2:0b:85:f1:
                    0f:b3:92:ca:cb:66:86:d9:6d:60:62:67:50:80:a4:
                    87:b3:ca:20:5d:08:cf:f5:25:a9:17:d7:50:2e:a6:
                    50:a4:68:28:fe:0b:e2:bc:1c:99:91:40:78:3e:17:
                    a1:26:46:6c:9f:5e:1d:61:60:18:4a:de:4f:bc:fd:
                    bd:c8:a7:4d:7e:24:83:c7:3a:51:23:5d:16:eb:46:
                    9d:23:9e:f3:df:63:f5:04:bb:4c:4d:94:e6:2d:4b:
                    28:9b:cc:73:a4:22:1f:c7:09:ab:b3:26:60:91:cd:
                    a8:85:73:32:42:3e:31:f8:77:a5:bb:ea:47:a2:90:
                    aa:f9
                Exponent: 65537 (0x10001)
        X509v3 extensions:
            X509v3 Subject Key Identifier: 
                38:09:4F:94:C3:73:1D:76:E6:83:6A:08:C3:08:BE:D1:B8:1C:84:82
            X509v3 Authority Key Identifier: 
                keyid:6C:12:E9:36:70:96:ED:B1:DD:17:53:F0:7D:78:77:3A:99:05:B3:6B
                DirName:/O=Freifunk M\xC3\x83\xC2\xBCnchen/CN=Freifunk M\xC3\x83\xC2\xBCnchen etcd CA Root
                serial:01
            X509v3 Basic Constraints: 
                CA:FALSE
            X509v3 Extended Key Usage: 
                TLS Web Client Authentication
    Signature Algorithm: sha256WithRSAEncryption
    Signature Value:
        5e:6b:e2:96:1d:f0:f3:32:76:7b:b0:9d:39:7e:57:8b:b4:c4:
        23:da:a0:05:0f:aa:0d:eb:1d:fe:1d:24:59:e5:65:43:c4:aa:
        e8:49:ca:22:40:42:01:47:30:2c:de:a7:ee:f5:81:e0:63:02:
        18:ec:29:3e:4e:91:78:c5:4f:cf:0e:20:d6:23:fc:8b:06:42:
        eb:b1:a0:7e:28:0b:d2:06:e7:e9:71:32:25:e2:9f:1a:75:de:
        2e:84:ac:3e:7b:42:ab:69:50:54:73:7b:4e:df:41:ab:9c:d8:
        cf:9e:2e:b5:63:4e:11:ca:eb:71:7b:42:c9:9e:70:db:11:17:
        ca:36:2a:4b:f8:8e:e3:b3:26:dc:be:70:11:22:fe:3c:e2:8b:
        d6:ed:4c:5a:7a:92:4e:fb:ce:72:af:49:7e:d8:e4:d7:24:b6:
        b5:3e:b5:26:0a:0e:fb:3c:43:44:c7:c3:8b:50:5b:ff:68:8c:
        99:9d:8d:fa:32:68:b6:c4:93:eb:f4:e3:e5:49:dd:86:fc:99:
        e8:e0:0b:6e:6e:43:80:d0:a3:f9:1e:40:3f:ee:3e:07:dd:dc:
        e2:c9:a7:cd:97:73:60:fc:52:04:25:d4:f7:dd:c9:0d:58:cc:
        84:76:1d:65:ce:54:ca:b6:f8:a7:6f:e5:5b:61:33:05:a2:c2:
        13:52:ca:0b
-----BEGIN CERTIFICATE-----
MIIDzTCCArWgAwIBAgIBBzANBgkqhkiG9w0BAQsFADBJMRwwGgYDVQQKDBNGcmVp
ZnVuayBNw4PCvG5jaGVuMSkwJwYDVQQDDCBGcmVpZnVuayBNw4PCvG5jaGVuIGV0
Y2QgQ0EgUm9vdDAgFw03MDAxMDEwMDAwMDBaGA85OTk5MTIzMTIzNTk1OVowUTEc
MBoGA1UECgwTRnJlaWZ1bmsgTcODwrxuY2hlbjExMC8GA1UEAwwoRnJlaWZ1bmsg
TcODwrxuY2hlbiBwYXJrZXItZ3cwMiAoY2xpZW50KTCCASIwDQYJKoZIhvcNAQEB
BQADggEPADCCAQoCggEBAOSsHGC9YLK0UQF6dbEtah5CpbZ7wZ8Z/JhjFXuDd3E5
4fuxVzGvSG1PjrpboM0udQoZnuU3PPEDsDjS+eV0XApwqJeYvLHlo1tRU4lxZI77
bNhUKyk7qm7P8+grOpEOCntaXu6gIQTaSig0PeEo0KBcpJLsJ3CVHut4J/8HIQOn
BIGiC4XxD7OSystmhtltYGJnUICkh7PKIF0Iz/UlqRfXUC6mUKRoKP4L4rwcmZFA
eD4XoSZGbJ9eHWFgGEreT7z9vcinTX4kg8c6USNdFutGnSOe899j9QS7TE2U5i1L
KJvMc6QiH8cJq7MmYJHNqIVzMkI+Mfh3pbvqR6KQqvkCAwEAAaOBtTCBsjAdBgNV
HQ4EFgQUOAlPlMNzHXbmg2oIwwi+0bgchIIwcQYDVR0jBGowaIAUbBLpNnCW7bHd
F1PwfXh3OpkFs2uhTaRLMEkxHDAaBgNVBAoME0ZyZWlmdW5rIE3Dg8K8bmNoZW4x
KTAnBgNVBAMMIEZyZWlmdW5rIE3Dg8K8bmNoZW4gZXRjZCBDQSBSb290ggEBMAkG
A1UdEwQCMAAwEwYDVR0lBAwwCgYIKwYBBQUHAwIwDQYJKoZIhvcNAQELBQADggEB
AF5r4pYd8PMydnuwnTl+V4u0xCPaoAUPqg3rHf4dJFnlZUPEquhJyiJAQgFHMCze
p+71geBjAhjsKT5OkXjFT88OINYj/IsGQuuxoH4oC9IG5+lxMiXinxp13i6ErD57
QqtpUFRze07fQauc2M+eLrVjThHK63F7QsmecNsRF8o2Kkv4juOzJty+cBEi/jzi
i9btTFp6kk77znKvSX7Y5NcktrU+tSYKDvs8Q0THw4tQW/9ojJmdjfoyaLbEk+v0
4+VJ3Yb8mejgC25uQ4DQo/keQD/uPgfd3OLJp82Xc2D8UgQl1PfdyQ1YzIR2HWXO
VMq2+Kdv5VthMwWiwhNSygs=
-----END CERTIFICATE-----
