Certificate:
    Data:
        Version: 3 (0x2)
        Serial Number: 3 (0x3)
        Signature Algorithm: sha256WithRSAEncryption
        Issuer: O=Freifunk M\xC3\x83\xC2\xBCnchen, CN=Freifunk M\xC3\x83\xC2\xBCnchen etcd CA Root
        Validity
            Not Before: Jan  1 00:00:00 1970 GMT
            Not After : Dec 31 23:59:59 9999 GMT
        Subject: O=Freifunk M\xC3\x83\xC2\xBCnchen, CN=Freifunk M\xC3\x83\xC2\xBCnchen parker-gw02 (server)
        Subject Public Key Info:
            Public Key Algorithm: rsaEncryption
                Public-Key: (2048 bit)
                Modulus:
                    00:db:35:c1:a1:50:ab:86:fa:d0:7c:70:20:49:d1:
                    f0:9b:01:34:3b:67:ea:80:e6:1d:47:56:e3:a0:99:
                    7e:4d:be:7e:86:c1:b0:b0:c9:9f:5e:24:14:9d:0c:
                    32:73:a4:9c:52:a2:03:40:67:0e:46:38:cf:33:ca:
                    dd:0e:5b:10:d5:2a:7e:42:fd:a3:ab:d7:96:7f:d7:
                    56:e8:cb:a5:27:00:45:51:d6:4f:c0:0f:63:0f:0f:
                    d3:e6:d8:c9:90:12:3b:54:5f:19:2b:0f:4f:4b:eb:
                    b8:43:c6:c2:89:f4:00:29:41:a1:a0:4d:21:a9:b3:
                    d8:87:eb:2a:5c:8e:42:f9:de:71:89:bc:38:79:59:
                    b7:8b:99:45:fd:5c:35:34:ed:3c:68:1f:92:27:9c:
                    f9:29:22:38:30:1a:f6:f5:8c:ca:06:56:f1:df:95:
                    57:a5:76:0c:0c:6d:d0:62:07:75:23:c8:93:de:35:
                    fc:3b:8a:30:2c:c0:8f:28:f1:62:22:27:33:35:c3:
                    21:72:41:28:ef:ce:29:08:bf:82:ac:c4:80:98:cd:
                    e9:d7:f3:ce:f2:ce:62:7b:32:e3:ac:e4:fa:84:27:
                    77:97:4a:d5:41:36:e7:be:8e:a2:d5:05:8a:c7:0b:
                    3b:1b:2a:43:b5:a5:9c:0b:2c:f3:38:b8:6a:29:0e:
                    01:87
                Exponent: 65537 (0x10001)
        X509v3 extensions:
            X509v3 Subject Key Identifier: 
                41:1A:5F:BC:3A:A9:D1:72:2B:B3:EB:5C:30:5B:92:BE:71:7D:5E:45
            X509v3 Authority Key Identifier: 
                keyid:6C:12:E9:36:70:96:ED:B1:DD:17:53:F0:7D:78:77:3A:99:05:B3:6B
                DirName:/O=Freifunk M\xC3\x83\xC2\xBCnchen/CN=Freifunk M\xC3\x83\xC2\xBCnchen etcd CA Root
                serial:01
            X509v3 Basic Constraints: 
                CA:FALSE
            X509v3 Extended Key Usage: 
                TLS Web Server Authentication, TLS Web Client Authentication
            X509v3 Subject Alternative Name: 
                IP Address:10.0.0.2
    Signature Algorithm: sha256WithRSAEncryption
    Signature Value:
        08:21:cc:49:6e:29:0e:60:e9:41:61:2e:e8:86:e6:12:9b:a0:
        02:d0:f0:eb:f9:01:dc:b7:8f:eb:37:2c:c4:97:1c:2a:d2:c4:
        15:f4:1b:16:54:9e:08:3c:c6:41:e3:a7:b8:b3:da:99:7b:ac:
        6a:51:31:4d:5e:78:f0:48:64:27:5a:43:77:89:8b:ec:dc:42:
        3a:a7:2e:7c:da:24:9d:7b:9c:e3:3c:60:f7:80:56:ec:1f:04:
        c7:5f:c6:cf:4b:33:ed:4c:41:31:78:f5:0e:b9:39:5b:e1:00:
        e0:4b:33:14:0a:59:eb:f6:6c:43:bd:7c:0b:26:0e:8e:e4:a6:
        5a:ec:7d:58:d8:47:f4:93:4e:4d:94:97:14:e1:aa:4e:0e:72:
        17:df:c3:e0:22:1e:ef:1a:ac:5b:02:87:df:9d:04:1a:ae:22:
        35:b1:f3:f9:1a:eb:49:52:65:30:99:ad:cd:5a:84:4f:90:87:
        6a:e1:b6:e8:fa:b6:5d:82:8a:48:91:0a:85:6c:71:9b:ea:a9:
        0f:8b:41:73:3c:84:f9:c3:cb:0d:eb:f8:cb:28:7a:f0:99:75:
        de:83:95:27:72:51:8e:08:f0:9a:93:76:41:86:f4:66:64:29:
        e8:b4:bf:ff:01:0d:cb:6b:ee:92:5d:e2:bd:5c:6a:d8:f1:32:
        8f:eb:b0:ea
-----BEGIN CERTIFICATE-----
MIID6DCCAtCgAwIBAgIBAzANBgkqhkiG9w0BAQsFADBJMRwwGgYDVQQKDBNGcmVp
ZnVuayBNw4PCvG5jaGVuMSkwJwYDVQQDDCBGcmVpZnVuayBNw4PCvG5jaGVuIGV0
Y2QgQ0EgUm9vdDAgFw03MDAxMDEwMDAwMDBaGA85OTk5MTIzMTIzNTk1OVowUTEc
MBoGA1UECgwTRnJlaWZ1bmsgTcODwrxuY2hlbjExMC8GA1UEAwwoRnJlaWZ1bmsg
TcODwrxuY2hlbiBwYXJrZXItZ3cwMiAoc2VydmVyKTCCASIwDQYJKoZIhvcNAQEB
BQADggEPADCCAQoCggEBANs1waFQq4b60HxwIEnR8JsBNDtn6oDmHUdW46CZfk2+
fobBsLDJn14kFJ0MMnOknFKiA0BnDkY4zzPK3Q5bENUqfkL9o6vXln/XVujLpScA
RVHWT8APYw8P0+bYyZASO1RfGSsPT0vruEPGwon0AClBoaBNIamz2IfrKlyOQvne
cYm8OHlZt4uZRf1cNTTtPGgfkiec+SkiODAa9vWMygZW8d+VV6V2DAxt0GIHdSPI
k941/DuKMCzAjyjxYiInMzXDIXJBKO/OKQi/gqzEgJjN6dfzzvLOYnsy46zk+oQn
d5dK1UE2576OotUFiscLOxsqQ7WlnAss8zi4aikOAYcCAwEAAaOB0DCBzTAdBgNV
HQ4EFgQUQRpfvDqp0XIrs+tcMFuSvnF9XkUwcQYDVR0jBGowaIAUbBLpNnCW7bHd
F1PwfXh3OpkFs2uhTaRLMEkxHDAaBgNVBAoME0ZyZWlmdW5rIE3Dg8K8bmNoZW4x
KTAnBgNVBAMMIEZyZWlmdW5rIE3Dg8K8bmNoZW4gZXRjZCBDQSBSb290ggEBMAkG
A1UdEwQCMAAwHQYDVR0lBBYwFAYIKwYBBQUHAwEGCCsGAQUFBwMCMA8GA1UdEQQI
MAaHBAoAAAIwDQYJKoZIhvcNAQELBQADggEBAAghzEluKQ5g6UFhLuiG5hKboALQ
8Ov5Ady3j+s3LMSXHCrSxBX0GxZUngg8xkHjp7iz2pl7rGpRMU1eePBIZCdaQ3eJ
i+zcQjqnLnzaJJ17nOM8YPeAVuwfBMdfxs9LM+1MQTF49Q65OVvhAOBLMxQKWev2
bEO9fAsmDo7kplrsfVjYR/STTk2UlxThqk4Ochffw+AiHu8arFsCh9+dBBquIjWx
8/ka60lSZTCZrc1ahE+Qh2rhtuj6tl2CikiRCoVscZvqqQ+LQXM8hPnDyw3r+Mso
evCZdd6DlSdyUY4I8JqTdkGG9GZkKei0v/8BDctr7pJd4r1catjxMo/rsOo=
-----END CERTIFICATE-----
